---
triple:          'arm64-apple-darwin'
binary-path:     ship_debug
relocations:
  - { offsetInCU: 0x3B, offset: 0x3B, size: 0x8, addend: 0x0, symName: _.str, symObjAddr: 0xC0CE0, symBinAddr: 0x1000A9020, symSize: 0x0 }
  - { offsetInCU: 0x6B, offset: 0x6B, size: 0x8, addend: 0x0, symName: _.str.1, symObjAddr: 0xC0D20, symBinAddr: 0x1000A9060, symSize: 0x0 }
  - { offsetInCU: 0x88, offset: 0x88, size: 0x8, addend: 0x0, symName: _.str.2, symObjAddr: 0xC0D60, symBinAddr: 0x1000A90A0, symSize: 0x0 }
  - { offsetInCU: 0xA5, offset: 0xA5, size: 0x8, addend: 0x0, symName: _.str.3, symObjAddr: 0xC0D80, symBinAddr: 0x1000A90C0, symSize: 0x0 }
  - { offsetInCU: 0xC2, offset: 0xC2, size: 0x8, addend: 0x0, symName: _.str.4, symObjAddr: 0xC0DA0, symBinAddr: 0x1000A90E0, symSize: 0x0 }
  - { offsetInCU: 0xDF, offset: 0xDF, size: 0x8, addend: 0x0, symName: _.str.5, symObjAddr: 0xC0DC0, symBinAddr: 0x1000A9100, symSize: 0x0 }
  - { offsetInCU: 0xFC, offset: 0xFC, size: 0x8, addend: 0x0, symName: _.str.6, symObjAddr: 0xC0DE0, symBinAddr: 0x1000A9120, symSize: 0x0 }
  - { offsetInCU: 0x119, offset: 0x119, size: 0x8, addend: 0x0, symName: _.str.7, symObjAddr: 0xC0E00, symBinAddr: 0x1000A9140, symSize: 0x0 }
  - { offsetInCU: 0x136, offset: 0x136, size: 0x8, addend: 0x0, symName: _.str.8, symObjAddr: 0xC0E40, symBinAddr: 0x1000A9180, symSize: 0x0 }
  - { offsetInCU: 0x153, offset: 0x153, size: 0x8, addend: 0x0, symName: _.str.9, symObjAddr: 0xC0E60, symBinAddr: 0x1000A91A0, symSize: 0x0 }
  - { offsetInCU: 0x164, offset: 0x164, size: 0x8, addend: 0x0, symName: _.str.10, symObjAddr: 0xC0E80, symBinAddr: 0x1000A91C0, symSize: 0x0 }
  - { offsetInCU: 0x175, offset: 0x175, size: 0x8, addend: 0x0, symName: _.str.11, symObjAddr: 0xC0EA0, symBinAddr: 0x1000A91E0, symSize: 0x0 }
  - { offsetInCU: 0x192, offset: 0x192, size: 0x8, addend: 0x0, symName: _.str.12, symObjAddr: 0xC0EC0, symBinAddr: 0x1000A9200, symSize: 0x0 }
  - { offsetInCU: 0x1AF, offset: 0x1AF, size: 0x8, addend: 0x0, symName: _.str.13, symObjAddr: 0xC0F20, symBinAddr: 0x1000A9260, symSize: 0x0 }
  - { offsetInCU: 0x1C0, offset: 0x1C0, size: 0x8, addend: 0x0, symName: _.str.14, symObjAddr: 0xC0F80, symBinAddr: 0x1000A92C0, symSize: 0x0 }
  - { offsetInCU: 0x1DD, offset: 0x1DD, size: 0x8, addend: 0x0, symName: _.str.15, symObjAddr: 0xC0FA0, symBinAddr: 0x1000A92E0, symSize: 0x0 }
  - { offsetInCU: 0x1EE, offset: 0x1EE, size: 0x8, addend: 0x0, symName: _.str.16, symObjAddr: 0xC0FC0, symBinAddr: 0x1000A9300, symSize: 0x0 }
  - { offsetInCU: 0x20B, offset: 0x20B, size: 0x8, addend: 0x0, symName: _.str.17, symObjAddr: 0xC1020, symBinAddr: 0x1000A9360, symSize: 0x0 }
  - { offsetInCU: 0x228, offset: 0x228, size: 0x8, addend: 0x0, symName: _.str.18, symObjAddr: 0xC1060, symBinAddr: 0x1000A93A0, symSize: 0x0 }
  - { offsetInCU: 0x239, offset: 0x239, size: 0x8, addend: 0x0, symName: _.str.19, symObjAddr: 0xC1080, symBinAddr: 0x1000A93C0, symSize: 0x0 }
  - { offsetInCU: 0x24A, offset: 0x24A, size: 0x8, addend: 0x0, symName: _.str.20, symObjAddr: 0xC10A0, symBinAddr: 0x1000A93E0, symSize: 0x0 }
  - { offsetInCU: 0x267, offset: 0x267, size: 0x8, addend: 0x0, symName: _.str.21, symObjAddr: 0xC1100, symBinAddr: 0x1000A9440, symSize: 0x0 }
  - { offsetInCU: 0x284, offset: 0x284, size: 0x8, addend: 0x0, symName: _.str.22, symObjAddr: 0xC1160, symBinAddr: 0x1000A94A0, symSize: 0x0 }
  - { offsetInCU: 0x2A1, offset: 0x2A1, size: 0x8, addend: 0x0, symName: _.str.23, symObjAddr: 0xC11C0, symBinAddr: 0x1000A9500, symSize: 0x0 }
  - { offsetInCU: 0x2B2, offset: 0x2B2, size: 0x8, addend: 0x0, symName: _.str.24, symObjAddr: 0xC11E0, symBinAddr: 0x1000A9520, symSize: 0x0 }
  - { offsetInCU: 0x2CF, offset: 0x2CF, size: 0x8, addend: 0x0, symName: _.str.25, symObjAddr: 0xC1240, symBinAddr: 0x1000A9580, symSize: 0x0 }
  - { offsetInCU: 0x2E0, offset: 0x2E0, size: 0x8, addend: 0x0, symName: _.str.26, symObjAddr: 0xC12A0, symBinAddr: 0x1000A95E0, symSize: 0x0 }
  - { offsetInCU: 0x2FE, offset: 0x2FE, size: 0x8, addend: 0x0, symName: _.str.27, symObjAddr: 0xC12E0, symBinAddr: 0x1000A9620, symSize: 0x0 }
  - { offsetInCU: 0x31C, offset: 0x31C, size: 0x8, addend: 0x0, symName: _.str.28, symObjAddr: 0xC1300, symBinAddr: 0x1000A9640, symSize: 0x0 }
  - { offsetInCU: 0x32E, offset: 0x32E, size: 0x8, addend: 0x0, symName: _.str.29, symObjAddr: 0xC1320, symBinAddr: 0x1000A9660, symSize: 0x0 }
  - { offsetInCU: 0x340, offset: 0x340, size: 0x8, addend: 0x0, symName: _.str.30, symObjAddr: 0xC1340, symBinAddr: 0x1000A9680, symSize: 0x0 }
  - { offsetInCU: 0x349, offset: 0x349, size: 0x8, addend: 0x0, symName: __Z11commandLineiPPcRbS1_Rc, symObjAddr: 0x15000, symBinAddr: 0x1000173A0, symSize: 0xACC }
  - { offsetInCU: 0x370, offset: 0x370, size: 0x8, addend: 0x0, symName: __ZZ11commandLineiPPcRbS1_RcE12long_options, symObjAddr: 0xAA0A0, symBinAddr: 0x1000C2680, symSize: 0x0 }
  - { offsetInCU: 0x434, offset: 0x434, size: 0x8, addend: 0x0, symName: _.str.31, symObjAddr: 0xC1360, symBinAddr: 0x1000A96A0, symSize: 0x0 }
  - { offsetInCU: 0x446, offset: 0x446, size: 0x8, addend: 0x0, symName: _.str.32, symObjAddr: 0xC1380, symBinAddr: 0x1000A96C0, symSize: 0x0 }
  - { offsetInCU: 0x464, offset: 0x464, size: 0x8, addend: 0x0, symName: _.str.33, symObjAddr: 0xC13E0, symBinAddr: 0x1000A9720, symSize: 0x0 }
  - { offsetInCU: 0x482, offset: 0x482, size: 0x8, addend: 0x0, symName: _.str.34, symObjAddr: 0xC1420, symBinAddr: 0x1000A9760, symSize: 0x0 }
  - { offsetInCU: 0x4A0, offset: 0x4A0, size: 0x8, addend: 0x0, symName: _.str.35, symObjAddr: 0xC14A0, symBinAddr: 0x1000A97E0, symSize: 0x0 }
  - { offsetInCU: 0x4BE, offset: 0x4BE, size: 0x8, addend: 0x0, symName: _.str.65, symObjAddr: 0xC14E0, symBinAddr: 0x1000A9820, symSize: 0x0 }
  - { offsetInCU: 0xEBE2, offset: 0xEBE2, size: 0x8, addend: 0x0, symName: __ZNSt3__124__put_character_sequenceB8ue170006IcNS_11char_traitsIcEEEERNS_13basic_ostreamIT_T0_EES7_PKS4_m, symObjAddr: 0x27904, symBinAddr: 0x100029CA4, symSize: 0x103C }
  - { offsetInCU: 0xFE1E, offset: 0xFE1E, size: 0x8, addend: 0x0, symName: __ZNSt3__113__fill_n_trueB8ue170006INS_6vectorIbNS_9allocatorIbEEEEEEvNS_14__bit_iteratorIT_Lb0EXLi0EEEENS6_9size_typeE, symObjAddr: 0x3FA98, symBinAddr: 0x100041E38, symSize: 0xC7C }
  - { offsetInCU: 0xFEE9, offset: 0xFEE9, size: 0x8, addend: 0x0, symName: __ZNSt3__114__fill_n_falseB8ue170006INS_6vectorIbNS_9allocatorIbEEEEEEvNS_14__bit_iteratorIT_Lb0EXLi0EEEENS6_9size_typeE, symObjAddr: 0x40794, symBinAddr: 0x100042B34, symSize: 0xCA4 }
  - { offsetInCU: 0x14087, offset: 0x14087, size: 0x8, addend: 0x0, symName: __ZNSt3__17getlineB8ue170006IcNS_11char_traitsIcEENS_9allocatorIcEEEERNS_13basic_istreamIT_T0_EES9_RNS_12basic_stringIS6_S7_T1_EE, symObjAddr: 0x1258, symBinAddr: 0x1000035F8, symSize: 0x330 }
  - { offsetInCU: 0x140DF, offset: 0x140DF, size: 0x8, addend: 0x0, symName: __ZNSt3__1lsB8ue170006INS_11char_traitsIcEEEERNS_13basic_ostreamIcT_EES6_PKc, symObjAddr: 0x1600, symBinAddr: 0x1000039A0, symSize: 0xD0 }
  - { offsetInCU: 0x14125, offset: 0x14125, size: 0x8, addend: 0x0, symName: __ZNSt3__1lsB8ue170006INS_11char_traitsIcEEEERNS_13basic_ostreamIcT_EES6_c, symObjAddr: 0xE6E4, symBinAddr: 0x100010A84, symSize: 0x2AC }
  - { offsetInCU: 0x14170, offset: 0x14170, size: 0x8, addend: 0x0, symName: __ZNSt3__1lsB8ue170006IcNS_11char_traitsIcEENS_9allocatorIcEEEERNS_13basic_ostreamIT_T0_EES9_RKNS_12basic_stringIS6_S7_T1_EE, symObjAddr: 0xE990, symBinAddr: 0x100010D30, symSize: 0x12C }
  - { offsetInCU: 0x141C8, offset: 0x141C8, size: 0x8, addend: 0x0, symName: __ZNSt3__1neB8ue170006IPK8PositionEEbRKNS_11__wrap_iterIT_EES8_, symObjAddr: 0xF4C0, symBinAddr: 0x100011860, symSize: 0xC4 }
  - { offsetInCU: 0x143F5, offset: 0x143F5, size: 0x8, addend: 0x0, symName: __ZNSt3__1eqB8ue170006IcNS_11char_traitsIcEENS_9allocatorIcEEEEbRKNS_12basic_stringIT_T0_T1_EEPKS6_, symObjAddr: 0xFF50, symBinAddr: 0x1000122F0, symSize: 0x120 }
  - { offsetInCU: 0x1445C, offset: 0x1445C, size: 0x8, addend: 0x0, symName: __ZNSt3__14endlB8ue170006IcNS_11char_traitsIcEEEERNS_13basic_ostreamIT_T0_EES7_, symObjAddr: 0x104F0, symBinAddr: 0x100012890, symSize: 0x3D8 }
  - { offsetInCU: 0x1449C, offset: 0x1449C, size: 0x8, addend: 0x0, symName: __ZNSt3__1neB8ue170006IPNS_4pairIiiEEEEbRKNS_11__wrap_iterIT_EES8_, symObjAddr: 0x11770, symBinAddr: 0x100013B10, symSize: 0xC4 }
  - { offsetInCU: 0x144DF, offset: 0x144DF, size: 0x8, addend: 0x0, symName: __ZNSt3__17reverseB8ue170006INS_11__wrap_iterIP8PositionEEEEvT_S5_, symObjAddr: 0x14754, symBinAddr: 0x100016AF4, symSize: 0x348 }
  - { offsetInCU: 0x14526, offset: 0x14526, size: 0x8, addend: 0x0, symName: __ZNSt3__1eqB8ue170006IPK8PositionEEbRKNS_11__wrap_iterIT_EES8_, symObjAddr: 0x16408, symBinAddr: 0x1000187A8, symSize: 0x9C }
  - { offsetInCU: 0x14569, offset: 0x14569, size: 0x8, addend: 0x0, symName: __ZNSt3__1eqB8ue170006IPNS_4pairIiiEEEEbRKNS_11__wrap_iterIT_EES8_, symObjAddr: 0x16808, symBinAddr: 0x100018BA8, symSize: 0x9C }
  - { offsetInCU: 0x145AC, offset: 0x145AC, size: 0x8, addend: 0x0, symName: __ZNSt3__112__to_addressB8ue170006I8PositionEEPT_S3_, symObjAddr: 0x194E0, symBinAddr: 0x10001B880, symSize: 0x14 }
  - { offsetInCU: 0x145E1, offset: 0x145E1, size: 0x8, addend: 0x0, symName: __ZNSt3__119__libcpp_deallocateB8ue170006EPvmm, symObjAddr: 0x1BFE8, symBinAddr: 0x10001E388, symSize: 0x60 }
  - { offsetInCU: 0x14646, offset: 0x14646, size: 0x8, addend: 0x0, symName: __ZNSt3__124__is_overaligned_for_newB8ue170006Em, symObjAddr: 0x1C048, symBinAddr: 0x10001E3E8, symSize: 0x20 }
  - { offsetInCU: 0x14674, offset: 0x14674, size: 0x8, addend: 0x0, symName: __ZNSt3__127__do_deallocate_handle_sizeB8ue170006IJSt11align_val_tEEEvPvmDpT_, symObjAddr: 0x1C068, symBinAddr: 0x10001E408, symSize: 0x30 }
  - { offsetInCU: 0x146C7, offset: 0x146C7, size: 0x8, addend: 0x0, symName: __ZNSt3__127__do_deallocate_handle_sizeB8ue170006IJEEEvPvmDpT_, symObjAddr: 0x1C098, symBinAddr: 0x10001E438, symSize: 0x28 }
  - { offsetInCU: 0x14705, offset: 0x14705, size: 0x8, addend: 0x0, symName: __ZNSt3__124__libcpp_operator_deleteB8ue170006IJPvSt11align_val_tEEEvDpT_, symObjAddr: 0x1C0C0, symBinAddr: 0x10001E460, symSize: 0x2C }
  - { offsetInCU: 0x1474E, offset: 0x1474E, size: 0x8, addend: 0x0, symName: __ZNSt3__124__libcpp_operator_deleteB8ue170006IJPvEEEvDpT_, symObjAddr: 0x1C0EC, symBinAddr: 0x10001E48C, symSize: 0x24 }
  - { offsetInCU: 0x14783, offset: 0x14783, size: 0x8, addend: 0x0, symName: __ZNSt3__112__to_addressB8ue170006IP8PositionEEPT_S4_, symObjAddr: 0x1C9CC, symBinAddr: 0x10001ED6C, symSize: 0x14 }
  - { offsetInCU: 0x147B8, offset: 0x147B8, size: 0x8, addend: 0x0, symName: __ZNSt3__112__to_addressB8ue170006INS_6vectorINS1_IbNS_9allocatorIbEEEENS2_IS4_EEEEEEPT_S8_, symObjAddr: 0x1E008, symBinAddr: 0x1000203A8, symSize: 0x14 }
  - { offsetInCU: 0x147ED, offset: 0x147ED, size: 0x8, addend: 0x0, symName: __ZNSt3__112__to_addressB8ue170006INS_6vectorINS_12basic_stringIcNS_11char_traitsIcEENS_9allocatorIcEEEENS5_IS7_EEEEEEPT_SB_, symObjAddr: 0x1F8DC, symBinAddr: 0x100021C7C, symSize: 0x14 }
  - { offsetInCU: 0x14822, offset: 0x14822, size: 0x8, addend: 0x0, symName: __ZNSt3__112__to_addressB8ue170006INS_6vectorINS1_I8PositionNS_9allocatorIS2_EEEENS3_IS5_EEEEEEPT_S9_, symObjAddr: 0x211B0, symBinAddr: 0x100023550, symSize: 0x14 }
  - { offsetInCU: 0x14857, offset: 0x14857, size: 0x8, addend: 0x0, symName: __ZNSt3__17getlineB8ue170006IcNS_11char_traitsIcEENS_9allocatorIcEEEERNS_13basic_istreamIT_T0_EES9_RNS_12basic_stringIS6_S7_T1_EES6_, symObjAddr: 0x23AF4, symBinAddr: 0x100025E94, symSize: 0xEAC }
  - { offsetInCU: 0x14B47, offset: 0x14B47, size: 0x8, addend: 0x0, symName: __ZNSt3__19use_facetB8ue170006INS_5ctypeIcEEEERKT_RKNS_6localeE, symObjAddr: 0x275F0, symBinAddr: 0x100029990, symSize: 0x188 }
  - { offsetInCU: 0x15014, offset: 0x15014, size: 0x8, addend: 0x0, symName: __ZNSt3__116__pad_and_outputB8ue170006IcNS_11char_traitsIcEEEENS_19ostreambuf_iteratorIT_T0_EES6_PKS4_S8_S8_RNS_8ios_baseES4_, symObjAddr: 0x28A84, symBinAddr: 0x10002AE24, symSize: 0xB88 }
  - { offsetInCU: 0x150F1, offset: 0x150F1, size: 0x8, addend: 0x0, symName: __ZNSt3__112__to_addressB8ue170006IcEEPT_S2_, symObjAddr: 0x2A178, symBinAddr: 0x10002C518, symSize: 0x14 }
  - { offsetInCU: 0x15126, offset: 0x15126, size: 0x8, addend: 0x0, symName: __ZNSt3__118__constexpr_strlenB8ue170006EPKc, symObjAddr: 0x2A50C, symBinAddr: 0x10002C8AC, symSize: 0x24 }
  - { offsetInCU: 0x15152, offset: 0x15152, size: 0x8, addend: 0x0, symName: __ZNSt3__1neB8ue170006ERKNS_16__deque_iteratorI8PositionPS1_RS1_PS2_lLl341EEES7_, symObjAddr: 0x2BCB4, symBinAddr: 0x10002E054, symSize: 0xC4 }
  - { offsetInCU: 0x1518F, offset: 0x1518F, size: 0x8, addend: 0x0, symName: __ZNSt3__1eqB8ue170006ERKNS_16__deque_iteratorI8PositionPS1_RS1_PS2_lLl341EEES7_, symObjAddr: 0x2C570, symBinAddr: 0x10002E910, symSize: 0x124 }
  - { offsetInCU: 0x151CC, offset: 0x151CC, size: 0x8, addend: 0x0, symName: __ZNSt3__13maxB8ue170006ImEERKT_S3_S3_, symObjAddr: 0x31424, symBinAddr: 0x1000337C4, symSize: 0x104 }
  - { offsetInCU: 0x155B4, offset: 0x155B4, size: 0x8, addend: 0x0, symName: __ZNSt3__14swapB8ue170006IPP8PositionEENS_9enable_ifIXaasr21is_move_constructibleIT_EE5valuesr18is_move_assignableIS5_EE5valueEvE4typeERS5_S8_, symObjAddr: 0x33D5C, symBinAddr: 0x1000360FC, symSize: 0x1C0 }
  - { offsetInCU: 0x15605, offset: 0x15605, size: 0x8, addend: 0x0, symName: __ZNSt3__14moveB8ue170006IPP8PositionS3_EET0_T_S5_S4_, symObjAddr: 0x3420C, symBinAddr: 0x1000365AC, symSize: 0x2B4 }
  - { offsetInCU: 0x1567E, offset: 0x1567E, size: 0x8, addend: 0x0, symName: __ZNSt3__16__moveB8ue170006INS_17_ClassicAlgPolicyEPP8PositionS4_S4_EENS_4pairIT0_T2_EES6_T1_S7_, symObjAddr: 0x349E0, symBinAddr: 0x100036D80, symSize: 0x22C }
  - { offsetInCU: 0x156ED, offset: 0x156ED, size: 0x8, addend: 0x0, symName: __ZNSt3__123__dispatch_copy_or_moveB8ue170006INS_17_ClassicAlgPolicyENS_11__move_loopIS1_EENS_14__move_trivialEPP8PositionS7_S7_EENS_4pairIT2_T4_EES9_T3_SA_, symObjAddr: 0x34C0C, symBinAddr: 0x100036FAC, symSize: 0x22C }
  - { offsetInCU: 0x1576E, offset: 0x1576E, size: 0x8, addend: 0x0, symName: __ZNSt3__121__unwrap_and_dispatchB8ue170006INS_10__overloadINS_11__move_loopINS_17_ClassicAlgPolicyEEENS_14__move_trivialEEEPP8PositionS9_S9_Li0EEENS_4pairIT0_T2_EESB_T1_SC_, symObjAddr: 0x34E38, symBinAddr: 0x1000371D8, symSize: 0x634 }
  - { offsetInCU: 0x15807, offset: 0x15807, size: 0x8, addend: 0x0, symName: __ZNSt3__114__unwrap_rangeB8ue170006IPP8PositionS3_EENS_4pairIT0_S5_EET_S7_, symObjAddr: 0x3546C, symBinAddr: 0x10003780C, symSize: 0x350 }
  - { offsetInCU: 0x159CD, offset: 0x159CD, size: 0x8, addend: 0x0, symName: __ZNSt3__113__unwrap_iterB8ue170006IPP8PositionNS_18__unwrap_iter_implIS3_Lb1EEELi0EEEDTclsrT0_8__unwrapclsr3stdE7declvalIT_EEEES7_, symObjAddr: 0x35A18, symBinAddr: 0x100037DB8, symSize: 0x24 }
  - { offsetInCU: 0x15A11, offset: 0x15A11, size: 0x8, addend: 0x0, symName: __ZNSt3__19make_pairB8ue170006IPP8PositionS3_EENS_4pairINS_18__unwrap_ref_decayIT_E4typeENS5_IT0_E4typeEEEOS6_OS9_, symObjAddr: 0x35A3C, symBinAddr: 0x100037DDC, symSize: 0x2A0 }
  - { offsetInCU: 0x15A62, offset: 0x15A62, size: 0x8, addend: 0x0, symName: __ZNSt3__114__rewrap_rangeB8ue170006IPP8PositionS3_EET_S4_T0_, symObjAddr: 0x35CDC, symBinAddr: 0x10003807C, symSize: 0x2C }
  - { offsetInCU: 0x15AAE, offset: 0x15AAE, size: 0x8, addend: 0x0, symName: __ZNSt3__113__rewrap_iterB8ue170006IPP8PositionS3_NS_18__unwrap_iter_implIS3_Lb1EEEEET_S6_T0_, symObjAddr: 0x35D08, symBinAddr: 0x1000380A8, symSize: 0x48 }
  - { offsetInCU: 0x15B03, offset: 0x15B03, size: 0x8, addend: 0x0, symName: __ZNSt3__119__copy_trivial_implB8ue170006IP8PositionS2_EENS_4pairIPT_PT0_EES5_S5_S7_, symObjAddr: 0x35D50, symBinAddr: 0x1000380F0, symSize: 0x480 }
  - { offsetInCU: 0x15B72, offset: 0x15B72, size: 0x8, addend: 0x0, symName: __ZNSt3__119__constexpr_memmoveB8ue170006IP8PositionS2_Li0EEEPT_S4_PT0_NS_15__element_countE, symObjAddr: 0x361D0, symBinAddr: 0x100038570, symSize: 0x64 }
  - { offsetInCU: 0x15BE0, offset: 0x15BE0, size: 0x8, addend: 0x0, symName: __ZNSt3__19make_pairB8ue170006IRPP8PositionS3_EENS_4pairINS_18__unwrap_ref_decayIT_E4typeENS6_IT0_E4typeEEEOS7_OSA_, symObjAddr: 0x36234, symBinAddr: 0x1000385D4, symSize: 0x2A0 }
  - { offsetInCU: 0x15C84, offset: 0x15C84, size: 0x8, addend: 0x0, symName: __ZNSt3__18distanceB8ue170006INS_13move_iteratorIPP8PositionEEEENS_15iterator_traitsIT_E15difference_typeES7_S7_, symObjAddr: 0x37174, symBinAddr: 0x100039514, symSize: 0x350 }
  - { offsetInCU: 0x15CCF, offset: 0x15CCF, size: 0x8, addend: 0x0, symName: __ZNSt3__110__distanceB8ue170006INS_13move_iteratorIPP8PositionEEEENS_15iterator_traitsIT_E15difference_typeES7_S7_NS_26random_access_iterator_tagE, symObjAddr: 0x381B8, symBinAddr: 0x10003A558, symSize: 0x274 }
  - { offsetInCU: 0x15D25, offset: 0x15D25, size: 0x8, addend: 0x0, symName: __ZNSt3__1miB8ue170006IPP8PositionS3_EEDTmicldtfp_4baseEcldtfp0_4baseEERKNS_13move_iteratorIT_EERKNS5_IT0_EE, symObjAddr: 0x3842C, symBinAddr: 0x10003A7CC, symSize: 0x9C }
  - { offsetInCU: 0x15D74, offset: 0x15D74, size: 0x8, addend: 0x0, symName: __ZNSt3__117__libcpp_allocateB8ue170006Emm, symObjAddr: 0x38914, symBinAddr: 0x10003ACB4, symSize: 0x60 }
  - { offsetInCU: 0x15DCE, offset: 0x15DCE, size: 0x8, addend: 0x0, symName: __ZNSt3__121__libcpp_operator_newB8ue170006IJmSt11align_val_tEEEPvDpT_, symObjAddr: 0x389C4, symBinAddr: 0x10003AD64, symSize: 0x6C }
  - { offsetInCU: 0x15E1B, offset: 0x15E1B, size: 0x8, addend: 0x0, symName: __ZNSt3__121__libcpp_operator_newB8ue170006IJmEEEPvDpT_, symObjAddr: 0x38A30, symBinAddr: 0x10003ADD0, symSize: 0x24 }
  - { offsetInCU: 0x15E54, offset: 0x15E54, size: 0x8, addend: 0x0, symName: __ZNSt3__113move_backwardB8ue170006IPP8PositionS3_EET0_T_S5_S4_, symObjAddr: 0x38A54, symBinAddr: 0x10003ADF4, symSize: 0x2B4 }
  - { offsetInCU: 0x15EB1, offset: 0x15EB1, size: 0x8, addend: 0x0, symName: __ZNSt3__115__move_backwardB8ue170006INS_17_ClassicAlgPolicyEPP8PositionS4_S4_EENS_4pairIT0_T2_EES6_T1_S7_, symObjAddr: 0x38D08, symBinAddr: 0x10003B0A8, symSize: 0x22C }
  - { offsetInCU: 0x15F20, offset: 0x15F20, size: 0x8, addend: 0x0, symName: __ZNSt3__123__dispatch_copy_or_moveB8ue170006INS_17_ClassicAlgPolicyENS_20__move_backward_loopIS1_EENS_23__move_backward_trivialEPP8PositionS7_S7_EENS_4pairIT2_T4_EES9_T3_SA_, symObjAddr: 0x38F34, symBinAddr: 0x10003B2D4, symSize: 0x22C }
  - { offsetInCU: 0x15FA1, offset: 0x15FA1, size: 0x8, addend: 0x0, symName: __ZNSt3__121__unwrap_and_dispatchB8ue170006INS_10__overloadINS_20__move_backward_loopINS_17_ClassicAlgPolicyEEENS_23__move_backward_trivialEEEPP8PositionS9_S9_Li0EEENS_4pairIT0_T2_EESB_T1_SC_, symObjAddr: 0x39160, symBinAddr: 0x10003B500, symSize: 0x634 }
  - { offsetInCU: 0x16080, offset: 0x16080, size: 0x8, addend: 0x0, symName: __ZNSt3__128__copy_backward_trivial_implB8ue170006IP8PositionS2_EENS_4pairIPT_PT0_EES5_S5_S7_, symObjAddr: 0x399F0, symBinAddr: 0x10003BD90, symSize: 0x4E0 }
  - { offsetInCU: 0x160F2, offset: 0x160F2, size: 0x8, addend: 0x0, symName: __ZNSt3__19make_pairB8ue170006IRPP8PositionS4_EENS_4pairINS_18__unwrap_ref_decayIT_E4typeENS6_IT0_E4typeEEEOS7_OSA_, symObjAddr: 0x39ED0, symBinAddr: 0x10003C270, symSize: 0x2A0 }
  - { offsetInCU: 0x16143, offset: 0x16143, size: 0x8, addend: 0x0, symName: __ZNSt3__13maxB8ue170006ImNS_6__lessIvvEEEERKT_S5_S5_T0_, symObjAddr: 0x3A408, symBinAddr: 0x10003C7A8, symSize: 0x2C0 }
  - { offsetInCU: 0x161E8, offset: 0x161E8, size: 0x8, addend: 0x0, symName: __ZNSt3__119__allocate_at_leastB8ue170006INS_9allocatorIP8PositionEEEENS_19__allocation_resultINS_16allocator_traitsIT_E7pointerEEERS7_m, symObjAddr: 0x3B014, symBinAddr: 0x10003D3B4, symSize: 0x28C }
  - { offsetInCU: 0x1622D, offset: 0x1622D, size: 0x8, addend: 0x0, symName: __ZNSt3__119__allocate_at_leastB8ue170006INS_9allocatorImEEEENS_19__allocation_resultINS_16allocator_traitsIT_E7pointerEEERS5_m, symObjAddr: 0x3E7B8, symBinAddr: 0x100040B58, symSize: 0x28C }
  - { offsetInCU: 0x16272, offset: 0x16272, size: 0x8, addend: 0x0, symName: __ZNSt3__120__throw_length_errorB8ue170006EPKc, symObjAddr: 0x3EF6C, symBinAddr: 0x10004130C, symSize: 0xB4 }
  - { offsetInCU: 0x1629C, offset: 0x1629C, size: 0x8, addend: 0x0, symName: __ZNSt3__16fill_nB8ue170006INS_6vectorIbNS_9allocatorIbEEEEEEvNS_14__bit_iteratorIT_Lb0EXLi0EEEENS6_9size_typeEb, symObjAddr: 0x3F534, symBinAddr: 0x1000418D4, symSize: 0x304 }
  - { offsetInCU: 0x162F1, offset: 0x162F1, size: 0x8, addend: 0x0, symName: __ZNSt3__13minB8ue170006ImEERKT_S3_S3_, symObjAddr: 0x41438, symBinAddr: 0x1000437D8, symSize: 0x104 }
  - { offsetInCU: 0x16334, offset: 0x16334, size: 0x8, addend: 0x0, symName: __ZNSt3__16fill_nB8ue170006IPmmmEET_S2_T0_RKT1_, symObjAddr: 0x4153C, symBinAddr: 0x1000438DC, symSize: 0x90 }
  - { offsetInCU: 0x16397, offset: 0x16397, size: 0x8, addend: 0x0, symName: __ZNSt3__112__to_addressB8ue170006ImEEPT_S2_, symObjAddr: 0x415CC, symBinAddr: 0x10004396C, symSize: 0x14 }
  - { offsetInCU: 0x163CC, offset: 0x163CC, size: 0x8, addend: 0x0, symName: __ZNSt3__13minB8ue170006ImNS_6__lessIvvEEEERKT_S5_S5_T0_, symObjAddr: 0x415E0, symBinAddr: 0x100043980, symSize: 0x2C0 }
  - { offsetInCU: 0x1642C, offset: 0x1642C, size: 0x8, addend: 0x0, symName: __ZNSt3__18__fill_nB8ue170006IPmmmEET_S2_T0_RKT1_, symObjAddr: 0x418A0, symBinAddr: 0x100043C40, symSize: 0x1B0 }
  - { offsetInCU: 0x1648F, offset: 0x1648F, size: 0x8, addend: 0x0, symName: __ZNSt3__121__convert_to_integralB8ue170006Em, symObjAddr: 0x41A50, symBinAddr: 0x100043DF0, symSize: 0x14 }
  - { offsetInCU: 0x164BB, offset: 0x164BB, size: 0x8, addend: 0x0, symName: __ZNSt3__16fill_nB8ue170006IPmmiEET_S2_T0_RKT1_, symObjAddr: 0x41C98, symBinAddr: 0x100044038, symSize: 0x90 }
  - { offsetInCU: 0x1651E, offset: 0x1651E, size: 0x8, addend: 0x0, symName: __ZNSt3__18__fill_nB8ue170006IPmmiEET_S2_T0_RKT1_, symObjAddr: 0x41D28, symBinAddr: 0x1000440C8, symSize: 0x1D8 }
  - { offsetInCU: 0x16581, offset: 0x16581, size: 0x8, addend: 0x0, symName: __ZNSt3__122__make_exception_guardB8ue170006INS_6vectorINS1_IbNS_9allocatorIbEEEENS2_IS4_EEE16__destroy_vectorEEENS_28__exception_guard_exceptionsIT_EES9_, symObjAddr: 0x42F34, symBinAddr: 0x1000452D4, symSize: 0x2BC }
  - { offsetInCU: 0x165BA, offset: 0x165BA, size: 0x8, addend: 0x0, symName: __ZNSt3__119__allocate_at_leastB8ue170006INS_9allocatorINS_6vectorIbNS1_IbEEEEEEEENS_19__allocation_resultINS_16allocator_traitsIT_E7pointerEEERS8_m, symObjAddr: 0x44D84, symBinAddr: 0x100047124, symSize: 0x28C }
  - { offsetInCU: 0x165FF, offset: 0x165FF, size: 0x8, addend: 0x0, symName: __ZNSt3__112__to_addressB8ue170006INS_6vectorIbNS_9allocatorIbEEEEEEPT_S6_, symObjAddr: 0x45EEC, symBinAddr: 0x10004828C, symSize: 0x14 }
  - { offsetInCU: 0x16634, offset: 0x16634, size: 0x8, addend: 0x0, symName: __ZNSt3__16__copyB8ue170006INS_17_ClassicAlgPolicyENS_14__bit_iteratorINS_6vectorIbNS_9allocatorIbEEEELb1ELm0EEES7_NS2_IS6_Lb0ELm0EEEEENS_4pairIT0_T2_EESA_T1_SB_, symObjAddr: 0x484F8, symBinAddr: 0x10004A898, symSize: 0x3DC }
  - { offsetInCU: 0x166AA, offset: 0x166AA, size: 0x8, addend: 0x0, symName: __ZNSt3__123__dispatch_copy_or_moveB8ue170006INS_17_ClassicAlgPolicyENS_11__copy_loopIS1_EENS_14__copy_trivialENS_14__bit_iteratorINS_6vectorIbNS_9allocatorIbEEEELb1ELm0EEESA_NS5_IS9_Lb0ELm0EEEEENS_4pairIT2_T4_EESD_T3_SE_, symObjAddr: 0x488D4, symBinAddr: 0x10004AC74, symSize: 0x3DC }
  - { offsetInCU: 0x16732, offset: 0x16732, size: 0x8, addend: 0x0, symName: __ZNSt3__121__unwrap_and_dispatchB8ue170006INS_10__overloadINS_11__copy_loopINS_17_ClassicAlgPolicyEEENS_14__copy_trivialEEENS_14__bit_iteratorINS_6vectorIbNS_9allocatorIbEEEELb1ELm0EEESC_NS7_ISB_Lb0ELm0EEELi0EEENS_4pairIT0_T2_EESF_T1_SG_, symObjAddr: 0x48CB0, symBinAddr: 0x10004B050, symSize: 0x7AC }
  - { offsetInCU: 0x167D3, offset: 0x167D3, size: 0x8, addend: 0x0, symName: __ZNSt3__114__unwrap_rangeB8ue170006INS_14__bit_iteratorINS_6vectorIbNS_9allocatorIbEEEELb1ELm0EEES6_EENS_4pairIT0_S8_EET_SA_, symObjAddr: 0x4945C, symBinAddr: 0x10004B7FC, symSize: 0x448 }
  - { offsetInCU: 0x16956, offset: 0x16956, size: 0x8, addend: 0x0, symName: __ZNSt3__113__unwrap_iterB8ue170006INS_14__bit_iteratorINS_6vectorIbNS_9allocatorIbEEEELb0ELm0EEENS_18__unwrap_iter_implIS6_Lb0EEELi0EEEDTclsrT0_8__unwrapclsr3stdE7declvalIT_EEEESA_, symObjAddr: 0x49D8C, symBinAddr: 0x10004C12C, symSize: 0x218 }
  - { offsetInCU: 0x1699C, offset: 0x1699C, size: 0x8, addend: 0x0, symName: __ZNSt3__19make_pairB8ue170006INS_14__bit_iteratorINS_6vectorIbNS_9allocatorIbEEEELb1ELm0EEENS1_IS5_Lb0ELm0EEEEENS_4pairINS_18__unwrap_ref_decayIT_E4typeENS9_IT0_E4typeEEEOSA_OSD_, symObjAddr: 0x49FA4, symBinAddr: 0x10004C344, symSize: 0x10C }
  - { offsetInCU: 0x169EB, offset: 0x169EB, size: 0x8, addend: 0x0, symName: __ZNSt3__114__rewrap_rangeB8ue170006INS_14__bit_iteratorINS_6vectorIbNS_9allocatorIbEEEELb1ELm0EEES6_EET_S7_T0_, symObjAddr: 0x4A0B0, symBinAddr: 0x10004C450, symSize: 0x3D4 }
  - { offsetInCU: 0x16A3F, offset: 0x16A3F, size: 0x8, addend: 0x0, symName: __ZNSt3__113__rewrap_iterB8ue170006INS_14__bit_iteratorINS_6vectorIbNS_9allocatorIbEEEELb0ELm0EEES6_NS_18__unwrap_iter_implIS6_Lb0EEEEET_S9_T0_, symObjAddr: 0x4A484, symBinAddr: 0x10004C824, symSize: 0x2B4 }
  - { offsetInCU: 0x16A98, offset: 0x16A98, size: 0x8, addend: 0x0, symName: __ZNSt3__19make_pairB8ue170006INS_14__bit_iteratorINS_6vectorIbNS_9allocatorIbEEEELb1ELm0EEES6_EENS_4pairINS_18__unwrap_ref_decayIT_E4typeENS8_IT0_E4typeEEEOS9_OSC_, symObjAddr: 0x4A738, symBinAddr: 0x10004CAD8, symSize: 0x108 }
  - { offsetInCU: 0x16AE7, offset: 0x16AE7, size: 0x8, addend: 0x0, symName: __ZNSt3__113__unwrap_iterB8ue170006INS_14__bit_iteratorINS_6vectorIbNS_9allocatorIbEEEELb1ELm0EEENS_18__unwrap_iter_implIS6_Lb0EEELi0EEEDTclsrT0_8__unwrapclsr3stdE7declvalIT_EEEESA_, symObjAddr: 0x4A840, symBinAddr: 0x10004CBE0, symSize: 0x2EC }
  - { offsetInCU: 0x16C4B, offset: 0x16C4B, size: 0x8, addend: 0x0, symName: __ZNSt3__1neB8ue170006ERKNS_14__bit_iteratorINS_6vectorIbNS_9allocatorIbEEEELb1ELm0EEES7_, symObjAddr: 0x4AEC8, symBinAddr: 0x10004D268, symSize: 0xC4 }
  - { offsetInCU: 0x16C88, offset: 0x16C88, size: 0x8, addend: 0x0, symName: __ZNSt3__1eqB8ue170006ERKNS_14__bit_iteratorINS_6vectorIbNS_9allocatorIbEEEELb1ELm0EEES7_, symObjAddr: 0x4BBBC, symBinAddr: 0x10004DF5C, symSize: 0x270 }
  - { offsetInCU: 0x16D0D, offset: 0x16D0D, size: 0x8, addend: 0x0, symName: __ZNSt3__113__rewrap_iterB8ue170006INS_14__bit_iteratorINS_6vectorIbNS_9allocatorIbEEEELb1ELm0EEES6_NS_18__unwrap_iter_implIS6_Lb0EEEEET_S9_T0_, symObjAddr: 0x4C388, symBinAddr: 0x10004E728, symSize: 0x3E8 }
  - { offsetInCU: 0x16D6A, offset: 0x16D6A, size: 0x8, addend: 0x0, symName: __ZNSt3__122__make_exception_guardB8ue170006INS_6vectorINS1_INS1_IbNS_9allocatorIbEEEENS2_IS4_EEEENS2_IS6_EEE16__destroy_vectorEEENS_28__exception_guard_exceptionsIT_EESB_, symObjAddr: 0x4ED24, symBinAddr: 0x1000510C4, symSize: 0x2BC }
  - { offsetInCU: 0x16DA3, offset: 0x16DA3, size: 0x8, addend: 0x0, symName: __ZNSt3__119__allocate_at_leastB8ue170006INS_9allocatorINS_6vectorINS2_IbNS1_IbEEEENS1_IS4_EEEEEEEENS_19__allocation_resultINS_16allocator_traitsIT_E7pointerEEERSA_m, symObjAddr: 0x50694, symBinAddr: 0x100052A34, symSize: 0x28C }
  - { offsetInCU: 0x16DE8, offset: 0x16DE8, size: 0x8, addend: 0x0, symName: __ZNSt3__130__uninitialized_allocator_copyB8ue170006INS_9allocatorINS_6vectorIbNS1_IbEEEEEEPS4_S6_S6_EET2_RT_T0_T1_S7_, symObjAddr: 0x52DF0, symBinAddr: 0x100055190, symSize: 0x334 }
  - { offsetInCU: 0x16E8E, offset: 0x16E8E, size: 0x8, addend: 0x0, symName: __ZNSt3__114__unwrap_rangeB8ue170006IPNS_6vectorIbNS_9allocatorIbEEEES5_EENS_4pairIT0_S7_EET_S9_, symObjAddr: 0x53124, symBinAddr: 0x1000554C4, symSize: 0x350 }
  - { offsetInCU: 0x16EDC, offset: 0x16EDC, size: 0x8, addend: 0x0, symName: __ZNSt3__135__uninitialized_allocator_copy_implB8ue170006INS_9allocatorINS_6vectorIbNS1_IbEEEEEEPS4_S6_S6_EET2_RT_T0_T1_S7_, symObjAddr: 0x53474, symBinAddr: 0x100055814, symSize: 0x6EC }
  - { offsetInCU: 0x16F88, offset: 0x16F88, size: 0x8, addend: 0x0, symName: __ZNSt3__113__unwrap_iterB8ue170006IPNS_6vectorIbNS_9allocatorIbEEEENS_18__unwrap_iter_implIS5_Lb1EEELi0EEEDTclsrT0_8__unwrapclsr3stdE7declvalIT_EEEES9_, symObjAddr: 0x53B60, symBinAddr: 0x100055F00, symSize: 0x24 }
  - { offsetInCU: 0x16FCC, offset: 0x16FCC, size: 0x8, addend: 0x0, symName: __ZNSt3__113__rewrap_iterB8ue170006IPNS_6vectorIbNS_9allocatorIbEEEES5_NS_18__unwrap_iter_implIS5_Lb1EEEEET_S8_T0_, symObjAddr: 0x53B84, symBinAddr: 0x100055F24, symSize: 0x48 }
  - { offsetInCU: 0x17021, offset: 0x17021, size: 0x8, addend: 0x0, symName: __ZNSt3__19make_pairB8ue170006IPNS_6vectorIbNS_9allocatorIbEEEES5_EENS_4pairINS_18__unwrap_ref_decayIT_E4typeENS7_IT0_E4typeEEEOS8_OSB_, symObjAddr: 0x53BCC, symBinAddr: 0x100055F6C, symSize: 0x2A0 }
  - { offsetInCU: 0x17146, offset: 0x17146, size: 0x8, addend: 0x0, symName: __ZNSt3__122__make_exception_guardB8ue170006INS_29_AllocatorDestroyRangeReverseINS_9allocatorINS_6vectorIbNS2_IbEEEEEEPS5_EEEENS_28__exception_guard_exceptionsIT_EESA_, symObjAddr: 0x54104, symBinAddr: 0x1000564A4, symSize: 0x23C }
  - { offsetInCU: 0x1717D, offset: 0x1717D, size: 0x8, addend: 0x0, symName: __ZNSt3__119__allocator_destroyB8ue170006INS_9allocatorINS_6vectorIbNS1_IbEEEEEENS_16reverse_iteratorIPS4_EES8_EEvRT_T0_T1_, symObjAddr: 0x54FA8, symBinAddr: 0x100057348, symSize: 0x2DC }
  - { offsetInCU: 0x171E9, offset: 0x171E9, size: 0x8, addend: 0x0, symName: __ZNSt3__1neB8ue170006IPNS_6vectorIbNS_9allocatorIbEEEES5_EEbRKNS_16reverse_iteratorIT_EERKNS6_IT0_EE, symObjAddr: 0x55304, symBinAddr: 0x1000576A4, symSize: 0x9C }
  - { offsetInCU: 0x17235, offset: 0x17235, size: 0x8, addend: 0x0, symName: __ZNSt3__112__to_addressB8ue170006INS_16reverse_iteratorIPNS_6vectorIbNS_9allocatorIbEEEEEEvEEu7__decayIDTclsr19__to_address_helperIT_EE6__callclsr3stdE7declvalIRKS8_EEEEESA_, symObjAddr: 0x553A0, symBinAddr: 0x100057740, symSize: 0x6C }
  - { offsetInCU: 0x172E7, offset: 0x172E7, size: 0x8, addend: 0x0, symName: __ZNSt3__122__make_exception_guardB8ue170006INS_6vectorI8PositionNS_9allocatorIS2_EEE16__destroy_vectorEEENS_28__exception_guard_exceptionsIT_EES8_, symObjAddr: 0x57248, symBinAddr: 0x1000595E8, symSize: 0x2BC }
  - { offsetInCU: 0x17320, offset: 0x17320, size: 0x8, addend: 0x0, symName: __ZNSt3__119__allocate_at_leastB8ue170006INS_9allocatorI8PositionEEEENS_19__allocation_resultINS_16allocator_traitsIT_E7pointerEEERS6_m, symObjAddr: 0x58BB8, symBinAddr: 0x10005AF58, symSize: 0x28C }
  - { offsetInCU: 0x17365, offset: 0x17365, size: 0x8, addend: 0x0, symName: __ZNSt3__122__make_exception_guardB8ue170006INS_6vectorINS1_I8PositionNS_9allocatorIS2_EEEENS3_IS5_EEE16__destroy_vectorEEENS_28__exception_guard_exceptionsIT_EESA_, symObjAddr: 0x5ADF8, symBinAddr: 0x10005D198, symSize: 0x2BC }
  - { offsetInCU: 0x1739E, offset: 0x1739E, size: 0x8, addend: 0x0, symName: __ZNSt3__119__allocate_at_leastB8ue170006INS_9allocatorINS_6vectorI8PositionNS1_IS3_EEEEEEEENS_19__allocation_resultINS_16allocator_traitsIT_E7pointerEEERS9_m, symObjAddr: 0x5CC48, symBinAddr: 0x10005EFE8, symSize: 0x28C }
  - { offsetInCU: 0x173E3, offset: 0x173E3, size: 0x8, addend: 0x0, symName: __ZNSt3__112__to_addressB8ue170006INS_6vectorI8PositionNS_9allocatorIS2_EEEEEEPT_S7_, symObjAddr: 0x5DDB0, symBinAddr: 0x100060150, symSize: 0x14 }
  - { offsetInCU: 0x17418, offset: 0x17418, size: 0x8, addend: 0x0, symName: __ZNSt3__130__uninitialized_allocator_copyB8ue170006INS_9allocatorI8PositionEEPS2_S4_S4_EET2_RT_T0_T1_S5_, symObjAddr: 0x5FC70, symBinAddr: 0x100062010, symSize: 0x334 }
  - { offsetInCU: 0x174BE, offset: 0x174BE, size: 0x8, addend: 0x0, symName: __ZNSt3__114__unwrap_rangeB8ue170006IP8PositionS2_EENS_4pairIT0_S4_EET_S6_, symObjAddr: 0x5FFA4, symBinAddr: 0x100062344, symSize: 0x350 }
  - { offsetInCU: 0x1750C, offset: 0x1750C, size: 0x8, addend: 0x0, symName: __ZNSt3__135__uninitialized_allocator_copy_implB8ue170006INS_9allocatorI8PositionEES2_S2_S2_LPv0EEEPT2_RT_PT0_SA_S6_, symObjAddr: 0x602F4, symBinAddr: 0x100062694, symSize: 0x38 }
  - { offsetInCU: 0x1758D, offset: 0x1758D, size: 0x8, addend: 0x0, symName: __ZNSt3__113__unwrap_iterB8ue170006IP8PositionNS_18__unwrap_iter_implIS2_Lb1EEELi0EEEDTclsrT0_8__unwrapclsr3stdE7declvalIT_EEEES6_, symObjAddr: 0x6032C, symBinAddr: 0x1000626CC, symSize: 0x24 }
  - { offsetInCU: 0x175D1, offset: 0x175D1, size: 0x8, addend: 0x0, symName: __ZNSt3__113__rewrap_iterB8ue170006IP8PositionS2_NS_18__unwrap_iter_implIS2_Lb1EEEEET_S5_T0_, symObjAddr: 0x60350, symBinAddr: 0x1000626F0, symSize: 0x48 }
  - { offsetInCU: 0x17626, offset: 0x17626, size: 0x8, addend: 0x0, symName: __ZNSt3__19make_pairB8ue170006IP8PositionS2_EENS_4pairINS_18__unwrap_ref_decayIT_E4typeENS4_IT0_E4typeEEEOS5_OS8_, symObjAddr: 0x60398, symBinAddr: 0x100062738, symSize: 0x2A0 }
  - { offsetInCU: 0x1777A, offset: 0x1777A, size: 0x8, addend: 0x0, symName: __ZNSt3__14copyB8ue170006IP8PositionS2_EET0_T_S4_S3_, symObjAddr: 0x608D0, symBinAddr: 0x100062C70, symSize: 0x2B4 }
  - { offsetInCU: 0x177D7, offset: 0x177D7, size: 0x8, addend: 0x0, symName: __ZNSt3__16__copyB8ue170006INS_17_ClassicAlgPolicyEP8PositionS3_S3_EENS_4pairIT0_T2_EES5_T1_S6_, symObjAddr: 0x60B84, symBinAddr: 0x100062F24, symSize: 0x22C }
  - { offsetInCU: 0x17846, offset: 0x17846, size: 0x8, addend: 0x0, symName: __ZNSt3__123__dispatch_copy_or_moveB8ue170006INS_17_ClassicAlgPolicyENS_11__copy_loopIS1_EENS_14__copy_trivialEP8PositionS6_S6_EENS_4pairIT2_T4_EES8_T3_S9_, symObjAddr: 0x60DB0, symBinAddr: 0x100063150, symSize: 0x22C }
  - { offsetInCU: 0x178C7, offset: 0x178C7, size: 0x8, addend: 0x0, symName: __ZNSt3__121__unwrap_and_dispatchB8ue170006INS_10__overloadINS_11__copy_loopINS_17_ClassicAlgPolicyEEENS_14__copy_trivialEEEP8PositionS8_S8_Li0EEENS_4pairIT0_T2_EESA_T1_SB_, symObjAddr: 0x60FDC, symBinAddr: 0x10006337C, symSize: 0x634 }
  - { offsetInCU: 0x179A6, offset: 0x179A6, size: 0x8, addend: 0x0, symName: __ZNSt3__114__rewrap_rangeB8ue170006IP8PositionS2_EET_S3_T0_, symObjAddr: 0x6186C, symBinAddr: 0x100063C0C, symSize: 0x2C }
  - { offsetInCU: 0x179F2, offset: 0x179F2, size: 0x8, addend: 0x0, symName: __ZNSt3__119__copy_trivial_implB8ue170006I8PositionS1_EENS_4pairIPT_PT0_EES4_S4_S6_, symObjAddr: 0x61898, symBinAddr: 0x100063C38, symSize: 0x488 }
  - { offsetInCU: 0x17A61, offset: 0x17A61, size: 0x8, addend: 0x0, symName: __ZNSt3__119__constexpr_memmoveB8ue170006I8PositionS1_Li0EEEPT_S3_PT0_NS_15__element_countE, symObjAddr: 0x61D20, symBinAddr: 0x1000640C0, symSize: 0x68 }
  - { offsetInCU: 0x17ACF, offset: 0x17ACF, size: 0x8, addend: 0x0, symName: __ZNSt3__19make_pairB8ue170006IRP8PositionS2_EENS_4pairINS_18__unwrap_ref_decayIT_E4typeENS5_IT0_E4typeEEEOS6_OS9_, symObjAddr: 0x61D88, symBinAddr: 0x100064128, symSize: 0x2A0 }
  - { offsetInCU: 0x17B73, offset: 0x17B73, size: 0x8, addend: 0x0, symName: __ZNSt3__122__make_exception_guardB8ue170006INS_6vectorINS1_INS1_I8PositionNS_9allocatorIS2_EEEENS3_IS5_EEEENS3_IS7_EEE16__destroy_vectorEEENS_28__exception_guard_exceptionsIT_EESC_, symObjAddr: 0x64098, symBinAddr: 0x100066438, symSize: 0x2BC }
  - { offsetInCU: 0x17BAC, offset: 0x17BAC, size: 0x8, addend: 0x0, symName: __ZNSt3__119__allocate_at_leastB8ue170006INS_9allocatorINS_6vectorINS2_I8PositionNS1_IS3_EEEENS1_IS5_EEEEEEEENS_19__allocation_resultINS_16allocator_traitsIT_E7pointerEEERSB_m, symObjAddr: 0x65A08, symBinAddr: 0x100067DA8, symSize: 0x28C }
  - { offsetInCU: 0x17BF1, offset: 0x17BF1, size: 0x8, addend: 0x0, symName: __ZNSt3__130__uninitialized_allocator_copyB8ue170006INS_9allocatorINS_6vectorI8PositionNS1_IS3_EEEEEEPS5_S7_S7_EET2_RT_T0_T1_S8_, symObjAddr: 0x68164, symBinAddr: 0x10006A504, symSize: 0x334 }
  - { offsetInCU: 0x17C97, offset: 0x17C97, size: 0x8, addend: 0x0, symName: __ZNSt3__114__unwrap_rangeB8ue170006IPNS_6vectorI8PositionNS_9allocatorIS2_EEEES6_EENS_4pairIT0_S8_EET_SA_, symObjAddr: 0x68498, symBinAddr: 0x10006A838, symSize: 0x350 }
  - { offsetInCU: 0x17CE5, offset: 0x17CE5, size: 0x8, addend: 0x0, symName: __ZNSt3__135__uninitialized_allocator_copy_implB8ue170006INS_9allocatorINS_6vectorI8PositionNS1_IS3_EEEEEEPS5_S7_S7_EET2_RT_T0_T1_S8_, symObjAddr: 0x687E8, symBinAddr: 0x10006AB88, symSize: 0x6EC }
  - { offsetInCU: 0x17D91, offset: 0x17D91, size: 0x8, addend: 0x0, symName: __ZNSt3__113__unwrap_iterB8ue170006IPNS_6vectorI8PositionNS_9allocatorIS2_EEEENS_18__unwrap_iter_implIS6_Lb1EEELi0EEEDTclsrT0_8__unwrapclsr3stdE7declvalIT_EEEESA_, symObjAddr: 0x68ED4, symBinAddr: 0x10006B274, symSize: 0x24 }
  - { offsetInCU: 0x17DD5, offset: 0x17DD5, size: 0x8, addend: 0x0, symName: __ZNSt3__113__rewrap_iterB8ue170006IPNS_6vectorI8PositionNS_9allocatorIS2_EEEES6_NS_18__unwrap_iter_implIS6_Lb1EEEEET_S9_T0_, symObjAddr: 0x68EF8, symBinAddr: 0x10006B298, symSize: 0x48 }
  - { offsetInCU: 0x17E2A, offset: 0x17E2A, size: 0x8, addend: 0x0, symName: __ZNSt3__19make_pairB8ue170006IPNS_6vectorI8PositionNS_9allocatorIS2_EEEES6_EENS_4pairINS_18__unwrap_ref_decayIT_E4typeENS8_IT0_E4typeEEEOS9_OSC_, symObjAddr: 0x68F40, symBinAddr: 0x10006B2E0, symSize: 0x2A0 }
  - { offsetInCU: 0x17F4F, offset: 0x17F4F, size: 0x8, addend: 0x0, symName: __ZNSt3__122__make_exception_guardB8ue170006INS_29_AllocatorDestroyRangeReverseINS_9allocatorINS_6vectorI8PositionNS2_IS4_EEEEEEPS6_EEEENS_28__exception_guard_exceptionsIT_EESB_, symObjAddr: 0x69478, symBinAddr: 0x10006B818, symSize: 0x23C }
  - { offsetInCU: 0x17F86, offset: 0x17F86, size: 0x8, addend: 0x0, symName: __ZNSt3__119__allocator_destroyB8ue170006INS_9allocatorINS_6vectorI8PositionNS1_IS3_EEEEEENS_16reverse_iteratorIPS5_EES9_EEvRT_T0_T1_, symObjAddr: 0x6A31C, symBinAddr: 0x10006C6BC, symSize: 0x2DC }
  - { offsetInCU: 0x17FF2, offset: 0x17FF2, size: 0x8, addend: 0x0, symName: __ZNSt3__1neB8ue170006IPNS_6vectorI8PositionNS_9allocatorIS2_EEEES6_EEbRKNS_16reverse_iteratorIT_EERKNS7_IT0_EE, symObjAddr: 0x6A678, symBinAddr: 0x10006CA18, symSize: 0x9C }
  - { offsetInCU: 0x1803E, offset: 0x1803E, size: 0x8, addend: 0x0, symName: __ZNSt3__112__to_addressB8ue170006INS_16reverse_iteratorIPNS_6vectorI8PositionNS_9allocatorIS3_EEEEEEvEEu7__decayIDTclsr19__to_address_helperIT_EE6__callclsr3stdE7declvalIRKS9_EEEEESB_, symObjAddr: 0x6A714, symBinAddr: 0x10006CAB4, symSize: 0x6C }
  - { offsetInCU: 0x180F0, offset: 0x180F0, size: 0x8, addend: 0x0, symName: __ZNSt3__112__to_addressB8ue170006IKcEEPT_S3_, symObjAddr: 0x6C4CC, symBinAddr: 0x10006E86C, symSize: 0x14 }
  - { offsetInCU: 0x18158, offset: 0x18158, size: 0x8, addend: 0x0, symName: __ZNSt3__122__make_exception_guardB8ue170006INS_6vectorINS_12basic_stringIcNS_11char_traitsIcEENS_9allocatorIcEEEENS5_IS7_EEE16__destroy_vectorEEENS_28__exception_guard_exceptionsIT_EESC_, symObjAddr: 0x6D524, symBinAddr: 0x10006F8C4, symSize: 0x2BC }
  - { offsetInCU: 0x18191, offset: 0x18191, size: 0x8, addend: 0x0, symName: __ZNSt3__119__allocate_at_leastB8ue170006INS_9allocatorINS_12basic_stringIcNS_11char_traitsIcEENS1_IcEEEEEEEENS_19__allocation_resultINS_16allocator_traitsIT_E7pointerEEERSA_m, symObjAddr: 0x6F320, symBinAddr: 0x1000716C0, symSize: 0x28C }
  - { offsetInCU: 0x181D6, offset: 0x181D6, size: 0x8, addend: 0x0, symName: __ZNSt3__112__to_addressB8ue170006INS_12basic_stringIcNS_11char_traitsIcEENS_9allocatorIcEEEEEEPT_S8_, symObjAddr: 0x70488, symBinAddr: 0x100072828, symSize: 0x14 }
  - { offsetInCU: 0x1820B, offset: 0x1820B, size: 0x8, addend: 0x0, symName: __ZNSt3__130__uninitialized_allocator_copyB8ue170006INS_9allocatorINS_12basic_stringIcNS_11char_traitsIcEENS1_IcEEEEEEPS6_S8_S8_EET2_RT_T0_T1_S9_, symObjAddr: 0x7668C, symBinAddr: 0x100078A2C, symSize: 0x334 }
  - { offsetInCU: 0x182B1, offset: 0x182B1, size: 0x8, addend: 0x0, symName: __ZNSt3__114__unwrap_rangeB8ue170006IPNS_12basic_stringIcNS_11char_traitsIcEENS_9allocatorIcEEEES7_EENS_4pairIT0_S9_EET_SB_, symObjAddr: 0x769C0, symBinAddr: 0x100078D60, symSize: 0x350 }
  - { offsetInCU: 0x182FF, offset: 0x182FF, size: 0x8, addend: 0x0, symName: __ZNSt3__135__uninitialized_allocator_copy_implB8ue170006INS_9allocatorINS_12basic_stringIcNS_11char_traitsIcEENS1_IcEEEEEEPS6_S8_S8_EET2_RT_T0_T1_S9_, symObjAddr: 0x76D10, symBinAddr: 0x1000790B0, symSize: 0x6EC }
  - { offsetInCU: 0x183AB, offset: 0x183AB, size: 0x8, addend: 0x0, symName: __ZNSt3__113__unwrap_iterB8ue170006IPNS_12basic_stringIcNS_11char_traitsIcEENS_9allocatorIcEEEENS_18__unwrap_iter_implIS7_Lb1EEELi0EEEDTclsrT0_8__unwrapclsr3stdE7declvalIT_EEEESB_, symObjAddr: 0x773FC, symBinAddr: 0x10007979C, symSize: 0x24 }
  - { offsetInCU: 0x183EF, offset: 0x183EF, size: 0x8, addend: 0x0, symName: __ZNSt3__113__rewrap_iterB8ue170006IPNS_12basic_stringIcNS_11char_traitsIcEENS_9allocatorIcEEEES7_NS_18__unwrap_iter_implIS7_Lb1EEEEET_SA_T0_, symObjAddr: 0x77420, symBinAddr: 0x1000797C0, symSize: 0x48 }
  - { offsetInCU: 0x18444, offset: 0x18444, size: 0x8, addend: 0x0, symName: __ZNSt3__19make_pairB8ue170006IPNS_12basic_stringIcNS_11char_traitsIcEENS_9allocatorIcEEEES7_EENS_4pairINS_18__unwrap_ref_decayIT_E4typeENS9_IT0_E4typeEEEOSA_OSD_, symObjAddr: 0x77468, symBinAddr: 0x100079808, symSize: 0x2A0 }
  - { offsetInCU: 0x18569, offset: 0x18569, size: 0x8, addend: 0x0, symName: __ZNSt3__122__make_exception_guardB8ue170006INS_29_AllocatorDestroyRangeReverseINS_9allocatorINS_12basic_stringIcNS_11char_traitsIcEENS2_IcEEEEEEPS7_EEEENS_28__exception_guard_exceptionsIT_EESC_, symObjAddr: 0x779A0, symBinAddr: 0x100079D40, symSize: 0x23C }
  - { offsetInCU: 0x185A0, offset: 0x185A0, size: 0x8, addend: 0x0, symName: __ZNSt3__119__allocator_destroyB8ue170006INS_9allocatorINS_12basic_stringIcNS_11char_traitsIcEENS1_IcEEEEEENS_16reverse_iteratorIPS6_EESA_EEvRT_T0_T1_, symObjAddr: 0x78844, symBinAddr: 0x10007ABE4, symSize: 0x2DC }
  - { offsetInCU: 0x1860C, offset: 0x1860C, size: 0x8, addend: 0x0, symName: __ZNSt3__1neB8ue170006IPNS_12basic_stringIcNS_11char_traitsIcEENS_9allocatorIcEEEES7_EEbRKNS_16reverse_iteratorIT_EERKNS8_IT0_EE, symObjAddr: 0x78BA0, symBinAddr: 0x10007AF40, symSize: 0x9C }
  - { offsetInCU: 0x18658, offset: 0x18658, size: 0x8, addend: 0x0, symName: __ZNSt3__112__to_addressB8ue170006INS_16reverse_iteratorIPNS_12basic_stringIcNS_11char_traitsIcEENS_9allocatorIcEEEEEEvEEu7__decayIDTclsr19__to_address_helperIT_EE6__callclsr3stdE7declvalIRKSA_EEEEESC_, symObjAddr: 0x78C3C, symBinAddr: 0x10007AFDC, symSize: 0x6C }
  - { offsetInCU: 0x1870A, offset: 0x1870A, size: 0x8, addend: 0x0, symName: __ZNSt3__119__allocate_at_leastB8ue170006INS_9allocatorINS_6vectorINS_12basic_stringIcNS_11char_traitsIcEENS1_IcEEEENS1_IS7_EEEEEEEENS_19__allocation_resultINS_16allocator_traitsIT_E7pointerEEERSD_m, symObjAddr: 0x7AA5C, symBinAddr: 0x10007CDFC, symSize: 0x28C }
  - { offsetInCU: 0x1874F, offset: 0x1874F, size: 0x8, addend: 0x0, symName: __ZNSt3__142__uninitialized_allocator_move_if_noexceptB8ue170006INS_9allocatorINS_6vectorINS_12basic_stringIcNS_11char_traitsIcEENS1_IcEEEENS1_IS7_EEEEEENS_16reverse_iteratorIPS9_EESD_SD_EET2_RT_T0_T1_SE_, symObjAddr: 0x7BACC, symBinAddr: 0x10007DE6C, symSize: 0x5D8 }
  - { offsetInCU: 0x18804, offset: 0x18804, size: 0x8, addend: 0x0, symName: __ZNSt3__14swapB8ue170006IPNS_6vectorINS_12basic_stringIcNS_11char_traitsIcEENS_9allocatorIcEEEENS5_IS7_EEEEEENS_9enable_ifIXaasr21is_move_constructibleIT_EE5valuesr18is_move_assignableISC_EE5valueEvE4typeERSC_SF_, symObjAddr: 0x7C1D4, symBinAddr: 0x10007E574, symSize: 0x1C0 }
  - { offsetInCU: 0x18855, offset: 0x18855, size: 0x8, addend: 0x0, symName: __ZNSt3__122__make_exception_guardB8ue170006INS_29_AllocatorDestroyRangeReverseINS_9allocatorINS_6vectorINS_12basic_stringIcNS_11char_traitsIcEENS2_IcEEEENS2_IS8_EEEEEENS_16reverse_iteratorIPSA_EEEEEENS_28__exception_guard_exceptionsIT_EESH_, symObjAddr: 0x7C70C, symBinAddr: 0x10007EAAC, symSize: 0x23C }
  - { offsetInCU: 0x1888C, offset: 0x1888C, size: 0x8, addend: 0x0, symName: __ZNSt3__1neB8ue170006IPNS_6vectorINS_12basic_stringIcNS_11char_traitsIcEENS_9allocatorIcEEEENS5_IS7_EEEESA_EEbRKNS_16reverse_iteratorIT_EERKNSB_IT0_EE, symObjAddr: 0x7C9D8, symBinAddr: 0x10007ED78, symSize: 0x9C }
  - { offsetInCU: 0x188D8, offset: 0x188D8, size: 0x8, addend: 0x0, symName: __ZNSt3__112__to_addressB8ue170006INS_16reverse_iteratorIPNS_6vectorINS_12basic_stringIcNS_11char_traitsIcEENS_9allocatorIcEEEENS6_IS8_EEEEEEvEEu7__decayIDTclsr19__to_address_helperIT_EE6__callclsr3stdE7declvalIRKSD_EEEEESF_, symObjAddr: 0x7CB00, symBinAddr: 0x10007EEA0, symSize: 0x6C }
  - { offsetInCU: 0x18937, offset: 0x18937, size: 0x8, addend: 0x0, symName: __ZNSt3__119__allocator_destroyB8ue170006INS_9allocatorINS_6vectorINS_12basic_stringIcNS_11char_traitsIcEENS1_IcEEEENS1_IS7_EEEEEENS_16reverse_iteratorINSB_IPS9_EEEESE_EEvRT_T0_T1_, symObjAddr: 0x7E2D0, symBinAddr: 0x100080670, symSize: 0x1A4 }
  - { offsetInCU: 0x1899C, offset: 0x1899C, size: 0x8, addend: 0x0, symName: __ZNSt3__1neB8ue170006INS_16reverse_iteratorIPNS_6vectorINS_12basic_stringIcNS_11char_traitsIcEENS_9allocatorIcEEEENS6_IS8_EEEEEESC_EEbRKNS1_IT_EERKNS1_IT0_EE, symObjAddr: 0x7E710, symBinAddr: 0x100080AB0, symSize: 0x324 }
  - { offsetInCU: 0x189EA, offset: 0x189EA, size: 0x8, addend: 0x0, symName: __ZNSt3__112__to_addressB8ue170006INS_16reverse_iteratorINS1_IPNS_6vectorINS_12basic_stringIcNS_11char_traitsIcEENS_9allocatorIcEEEENS6_IS8_EEEEEEEEvEEu7__decayIDTclsr19__to_address_helperIT_EE6__callclsr3stdE7declvalIRKSE_EEEEESG_, symObjAddr: 0x7EA34, symBinAddr: 0x100080DD4, symSize: 0x6C }
  - { offsetInCU: 0x18A49, offset: 0x18A49, size: 0x8, addend: 0x0, symName: __ZNSt3__123__str_find_first_not_ofB8ue170006IcmNS_11char_traitsIcEELm18446744073709551615EEET0_PKT_S3_S6_S3_S3_, symObjAddr: 0x7FEF8, symBinAddr: 0x100082298, symSize: 0x37C }
  - { offsetInCU: 0x18B13, offset: 0x18B13, size: 0x8, addend: 0x0, symName: __ZNSt3__118__constexpr_memchrB8ue170006IKccEEPT_S3_T0_m, symObjAddr: 0x80360, symBinAddr: 0x100082700, symSize: 0x2C4 }
  - { offsetInCU: 0x18B8B, offset: 0x18B8B, size: 0x8, addend: 0x0, symName: __ZNSt3__122__str_find_last_not_ofB8ue170006IcmNS_11char_traitsIcEELm18446744073709551615EEET0_PKT_S3_S6_S3_S3_, symObjAddr: 0x80624, symBinAddr: 0x1000829C4, symSize: 0x28C }
  - { offsetInCU: 0x18C40, offset: 0x18C40, size: 0x8, addend: 0x0, symName: __ZNSt3__122__make_exception_guardB8ue170006INS_6vectorINS_4pairIiiEENS_9allocatorIS3_EEE16__destroy_vectorEEENS_28__exception_guard_exceptionsIT_EES9_, symObjAddr: 0x82298, symBinAddr: 0x100084638, symSize: 0x2BC }
  - { offsetInCU: 0x18C79, offset: 0x18C79, size: 0x8, addend: 0x0, symName: __ZNSt3__119__allocate_at_leastB8ue170006INS_9allocatorINS_4pairIiiEEEEEENS_19__allocation_resultINS_16allocator_traitsIT_E7pointerEEERS7_m, symObjAddr: 0x8429C, symBinAddr: 0x10008663C, symSize: 0x28C }
  - { offsetInCU: 0x18CBE, offset: 0x18CBE, size: 0x8, addend: 0x0, symName: __ZNSt3__112__to_addressB8ue170006INS_4pairIiiEEEEPT_S4_, symObjAddr: 0x853E4, symBinAddr: 0x100087784, symSize: 0x14 }
  - { offsetInCU: 0x18CF3, offset: 0x18CF3, size: 0x8, addend: 0x0, symName: __ZNSt3__130__uninitialized_allocator_copyB8ue170006INS_9allocatorINS_4pairIiiEEEEPKS3_S6_PS3_EET2_RT_T0_T1_S8_, symObjAddr: 0x85750, symBinAddr: 0x100087AF0, symSize: 0x334 }
  - { offsetInCU: 0x18D99, offset: 0x18D99, size: 0x8, addend: 0x0, symName: __ZNSt3__114__unwrap_rangeB8ue170006IPKNS_4pairIiiEES4_EENS1_IT0_S5_EET_S7_, symObjAddr: 0x86418, symBinAddr: 0x1000887B8, symSize: 0x350 }
  - { offsetInCU: 0x18DE7, offset: 0x18DE7, size: 0x8, addend: 0x0, symName: __ZNSt3__135__uninitialized_allocator_copy_implB8ue170006INS_9allocatorINS_4pairIiiEEEEPKS3_S6_PS3_EET2_RT_T0_T1_S8_, symObjAddr: 0x86768, symBinAddr: 0x100088B08, symSize: 0x6EC }
  - { offsetInCU: 0x18E93, offset: 0x18E93, size: 0x8, addend: 0x0, symName: __ZNSt3__113__unwrap_iterB8ue170006IPNS_4pairIiiEENS_18__unwrap_iter_implIS3_Lb1EEELi0EEEDTclsrT0_8__unwrapclsr3stdE7declvalIT_EEEES7_, symObjAddr: 0x86E54, symBinAddr: 0x1000891F4, symSize: 0x24 }
  - { offsetInCU: 0x18ED7, offset: 0x18ED7, size: 0x8, addend: 0x0, symName: __ZNSt3__113__rewrap_iterB8ue170006IPNS_4pairIiiEES3_NS_18__unwrap_iter_implIS3_Lb1EEEEET_S6_T0_, symObjAddr: 0x86E78, symBinAddr: 0x100089218, symSize: 0x48 }
  - { offsetInCU: 0x18F2C, offset: 0x18F2C, size: 0x8, addend: 0x0, symName: __ZNSt3__19make_pairB8ue170006IPKNS_4pairIiiEES4_EENS1_INS_18__unwrap_ref_decayIT_E4typeENS5_IT0_E4typeEEEOS6_OS9_, symObjAddr: 0x86EC0, symBinAddr: 0x100089260, symSize: 0x2A0 }
  - { offsetInCU: 0x18F7D, offset: 0x18F7D, size: 0x8, addend: 0x0, symName: __ZNSt3__113__unwrap_iterB8ue170006IPKNS_4pairIiiEENS_18__unwrap_iter_implIS4_Lb1EEELi0EEEDTclsrT0_8__unwrapclsr3stdE7declvalIT_EEEES8_, symObjAddr: 0x87160, symBinAddr: 0x100089500, symSize: 0x24 }
  - { offsetInCU: 0x190E8, offset: 0x190E8, size: 0x8, addend: 0x0, symName: __ZNSt3__112__to_addressB8ue170006IKNS_4pairIiiEEEEPT_S5_, symObjAddr: 0x87440, symBinAddr: 0x1000897E0, symSize: 0x14 }
  - { offsetInCU: 0x1911D, offset: 0x1911D, size: 0x8, addend: 0x0, symName: __ZNSt3__122__make_exception_guardB8ue170006INS_29_AllocatorDestroyRangeReverseINS_9allocatorINS_4pairIiiEEEEPS4_EEEENS_28__exception_guard_exceptionsIT_EES9_, symObjAddr: 0x87454, symBinAddr: 0x1000897F4, symSize: 0x23C }
  - { offsetInCU: 0x19154, offset: 0x19154, size: 0x8, addend: 0x0, symName: __ZNSt3__119__allocator_destroyB8ue170006INS_9allocatorINS_4pairIiiEEEENS_16reverse_iteratorIPS3_EES7_EEvRT_T0_T1_, symObjAddr: 0x882B4, symBinAddr: 0x10008A654, symSize: 0x2DC }
  - { offsetInCU: 0x191C0, offset: 0x191C0, size: 0x8, addend: 0x0, symName: __ZNSt3__1neB8ue170006IPNS_4pairIiiEES3_EEbRKNS_16reverse_iteratorIT_EERKNS4_IT0_EE, symObjAddr: 0x88610, symBinAddr: 0x10008A9B0, symSize: 0x9C }
  - { offsetInCU: 0x1920C, offset: 0x1920C, size: 0x8, addend: 0x0, symName: __ZNSt3__112__to_addressB8ue170006INS_16reverse_iteratorIPNS_4pairIiiEEEEvEEu7__decayIDTclsr19__to_address_helperIT_EE6__callclsr3stdE7declvalIRKS6_EEEEES8_, symObjAddr: 0x886D8, symBinAddr: 0x10008AA78, symSize: 0x6C }
  - { offsetInCU: 0x192BE, offset: 0x192BE, size: 0x8, addend: 0x0, symName: __ZNSt3__142__uninitialized_allocator_move_if_noexceptB8ue170006INS_9allocatorI8PositionEENS_16reverse_iteratorIPS2_EES6_S2_vEET1_RT_T0_SA_S7_, symObjAddr: 0x9172C, symBinAddr: 0x100093ACC, symSize: 0x4A8 }
  - { offsetInCU: 0x19348, offset: 0x19348, size: 0x8, addend: 0x0, symName: __ZNSt3__14swapB8ue170006IP8PositionEENS_9enable_ifIXaasr21is_move_constructibleIT_EE5valuesr18is_move_assignableIS4_EE5valueEvE4typeERS4_S7_, symObjAddr: 0x91D04, symBinAddr: 0x1000940A4, symSize: 0x1C0 }
  - { offsetInCU: 0x19399, offset: 0x19399, size: 0x8, addend: 0x0, symName: __ZNSt3__14moveB8ue170006INS_16reverse_iteratorIP8PositionEES4_EET0_T_S6_S5_, symObjAddr: 0x91EC4, symBinAddr: 0x100094264, symSize: 0x4B0 }
  - { offsetInCU: 0x19400, offset: 0x19400, size: 0x8, addend: 0x0, symName: __ZNSt3__16__moveB8ue170006INS_17_ClassicAlgPolicyENS_16reverse_iteratorIP8PositionEES5_S5_EENS_4pairIT0_T2_EES7_T1_S8_, symObjAddr: 0x92374, symBinAddr: 0x100094714, symSize: 0x424 }
  - { offsetInCU: 0x19478, offset: 0x19478, size: 0x8, addend: 0x0, symName: __ZNSt3__123__dispatch_copy_or_moveB8ue170006INS_17_ClassicAlgPolicyENS_11__move_loopIS1_EENS_14__move_trivialENS_16reverse_iteratorIP8PositionEES8_S8_EENS_4pairIT2_T4_EESA_T3_SB_, symObjAddr: 0x92798, symBinAddr: 0x100094B38, symSize: 0x424 }
  - { offsetInCU: 0x19502, offset: 0x19502, size: 0x8, addend: 0x0, symName: __ZNSt3__121__unwrap_and_dispatchB8ue170006INS_10__overloadINS_11__move_loopINS_17_ClassicAlgPolicyEEENS_14__move_trivialEEENS_16reverse_iteratorIP8PositionEESA_SA_Li0EEENS_4pairIT0_T2_EESC_T1_SD_, symObjAddr: 0x92BBC, symBinAddr: 0x100094F5C, symSize: 0x880 }
  - { offsetInCU: 0x195A6, offset: 0x195A6, size: 0x8, addend: 0x0, symName: __ZNSt3__114__unwrap_rangeB8ue170006INS_16reverse_iteratorIP8PositionEES4_EENS_4pairIT0_S6_EET_S8_, symObjAddr: 0x9343C, symBinAddr: 0x1000957DC, symSize: 0x448 }
  - { offsetInCU: 0x19720, offset: 0x19720, size: 0x8, addend: 0x0, symName: __ZNSt3__113__unwrap_iterB8ue170006INS_16reverse_iteratorIP8PositionEENS_18__unwrap_iter_implIS4_Lb0EEELi0EEEDTclsrT0_8__unwrapclsr3stdE7declvalIT_EEEES8_, symObjAddr: 0x93BF4, symBinAddr: 0x100095F94, symSize: 0x2EC }
  - { offsetInCU: 0x19768, offset: 0x19768, size: 0x8, addend: 0x0, symName: __ZNSt3__19make_pairB8ue170006INS_16reverse_iteratorIP8PositionEES4_EENS_4pairINS_18__unwrap_ref_decayIT_E4typeENS6_IT0_E4typeEEEOS7_OSA_, symObjAddr: 0x93EE0, symBinAddr: 0x100096280, symSize: 0x108 }
  - { offsetInCU: 0x197B7, offset: 0x197B7, size: 0x8, addend: 0x0, symName: __ZNSt3__114__rewrap_rangeB8ue170006INS_16reverse_iteratorIP8PositionEES4_EET_S5_T0_, symObjAddr: 0x93FE8, symBinAddr: 0x100096388, symSize: 0x3D4 }
  - { offsetInCU: 0x1980B, offset: 0x1980B, size: 0x8, addend: 0x0, symName: __ZNSt3__113__rewrap_iterB8ue170006INS_16reverse_iteratorIP8PositionEES4_NS_18__unwrap_iter_implIS4_Lb0EEEEET_S7_T0_, symObjAddr: 0x943BC, symBinAddr: 0x10009675C, symSize: 0x3E8 }
  - { offsetInCU: 0x19868, offset: 0x19868, size: 0x8, addend: 0x0, symName: __ZNSt3__1neB8ue170006IP8PositionS2_EEbRKNS_16reverse_iteratorIT_EERKNS3_IT0_EE, symObjAddr: 0x947A4, symBinAddr: 0x100096B44, symSize: 0x9C }
  - { offsetInCU: 0x1998E, offset: 0x1998E, size: 0x8, addend: 0x0, symName: __ZNSt3__19__reverseB8ue170006INS_17_ClassicAlgPolicyENS_11__wrap_iterIP8PositionEES5_EEvT0_T1_, symObjAddr: 0x95F64, symBinAddr: 0x100098304, symSize: 0x348 }
  - { offsetInCU: 0x199E7, offset: 0x199E7, size: 0x8, addend: 0x0, symName: __ZNSt3__114__reverse_implB8ue170006INS_17_ClassicAlgPolicyENS_11__wrap_iterIP8PositionEEEEvT0_S6_NS_26random_access_iterator_tagE, symObjAddr: 0x962AC, symBinAddr: 0x10009864C, symSize: 0x2F8 }
  - { offsetInCU: 0x19A42, offset: 0x19A42, size: 0x8, addend: 0x0, symName: __ZNSt3__1neB8ue170006IP8PositionEEbRKNS_11__wrap_iterIT_EES7_, symObjAddr: 0x965A4, symBinAddr: 0x100098944, symSize: 0xC4 }
  - { offsetInCU: 0x19A85, offset: 0x19A85, size: 0x8, addend: 0x0, symName: __ZNSt3__1ltB8ue170006IP8PositionEEbRKNS_11__wrap_iterIT_EES7_, symObjAddr: 0x96668, symBinAddr: 0x100098A08, symSize: 0x9C }
  - { offsetInCU: 0x19AC8, offset: 0x19AC8, size: 0x8, addend: 0x0, symName: __ZNSt3__1eqB8ue170006IP8PositionEEbRKNS_11__wrap_iterIT_EES7_, symObjAddr: 0x96CE4, symBinAddr: 0x100099084, symSize: 0x9C }
  - { offsetInCU: 0x19B0B, offset: 0x19B0B, size: 0x8, addend: 0x0, symName: __ZNSt3__19iter_swapB8ue170006INS_11__wrap_iterIP8PositionEES4_EEvT_T0_, symObjAddr: 0x96E2C, symBinAddr: 0x1000991CC, symSize: 0x308 }
  - { offsetInCU: 0x19B5B, offset: 0x19B5B, size: 0x8, addend: 0x0, symName: __ZNSt3__14swapB8ue170006I8PositionEENS_9enable_ifIXaasr21is_move_constructibleIT_EE5valuesr18is_move_assignableIS3_EE5valueEvE4typeERS3_S6_, symObjAddr: 0x97134, symBinAddr: 0x1000994D4, symSize: 0x200 }
  - { offsetInCU: 0x1A4EB, offset: 0x1A4EB, size: 0x8, addend: 0x0, symName: __ZSt28__throw_bad_array_new_lengthB8ue170006v, symObjAddr: 0x38898, symBinAddr: 0x10003AC38, symSize: 0x7C }
  - { offsetInCU: 0x1B65E, offset: 0x1B65E, size: 0x8, addend: 0x0, symName: __ZNSt3__16vectorINS0_INS_12basic_stringIcNS_11char_traitsIcEENS_9allocatorIcEEEENS4_IS6_EEEENS4_IS8_EEE26__swap_out_circular_bufferERNS_14__split_bufferIS8_RS9_EE, symObjAddr: 0x74104, symBinAddr: 0x1000764A4, symSize: 0x85C }
  - { offsetInCU: 0x1B86F, offset: 0x1B86F, size: 0x8, addend: 0x0, symName: __ZNSt3__16vectorI8PositionNS_9allocatorIS1_EEE26__swap_out_circular_bufferERNS_14__split_bufferIS1_RS3_EE, symObjAddr: 0x8FE74, symBinAddr: 0x100092214, symSize: 0x85C }
  - { offsetInCU: 0x1DE7D, offset: 0x1DE7D, size: 0x8, addend: 0x0, symName: __ZN4SHIPC2Ev, symObjAddr: 0x0, symBinAddr: 0x1000023A0, symSize: 0x504 }
  - { offsetInCU: 0x1DEAA, offset: 0x1DEAA, size: 0x8, addend: 0x0, symName: __ZN8PositionC1Eiii, symObjAddr: 0x504, symBinAddr: 0x1000028A4, symSize: 0x90 }
  - { offsetInCU: 0x1DEFE, offset: 0x1DEFE, size: 0x8, addend: 0x0, symName: __ZNSt3__15dequeI8PositionNS_9allocatorIS1_EEEC1B8ue170006Ev, symObjAddr: 0x594, symBinAddr: 0x100002934, symSize: 0x78 }
  - { offsetInCU: 0x1DF28, offset: 0x1DF28, size: 0x8, addend: 0x0, symName: __ZNSt3__16vectorINS0_INS0_IbNS_9allocatorIbEEEENS1_IS3_EEEENS1_IS5_EEEC1B8ue170006Ev, symObjAddr: 0x60C, symBinAddr: 0x1000029AC, symSize: 0x78 }
  - { offsetInCU: 0x1DF52, offset: 0x1DF52, size: 0x8, addend: 0x0, symName: __ZNSt3__16vectorINS0_INS_12basic_stringIcNS_11char_traitsIcEENS_9allocatorIcEEEENS4_IS6_EEEENS4_IS8_EEEC1B8ue170006Ev, symObjAddr: 0x684, symBinAddr: 0x100002A24, symSize: 0x78 }
  - { offsetInCU: 0x1DF7C, offset: 0x1DF7C, size: 0x8, addend: 0x0, symName: __ZNSt3__16vectorINS0_INS0_I8PositionNS_9allocatorIS1_EEEENS2_IS4_EEEENS2_IS6_EEEC1B8ue170006Ev, symObjAddr: 0x6FC, symBinAddr: 0x100002A9C, symSize: 0x78 }
  - { offsetInCU: 0x1DFA6, offset: 0x1DFA6, size: 0x8, addend: 0x0, symName: __ZNSt3__16vectorI8PositionNS_9allocatorIS1_EEEC1B8ue170006Ev, symObjAddr: 0x774, symBinAddr: 0x100002B14, symSize: 0x78 }
  - { offsetInCU: 0x1DFD0, offset: 0x1DFD0, size: 0x8, addend: 0x0, symName: __ZNSt3__16vectorI8PositionNS_9allocatorIS1_EEED1B8ue170006Ev, symObjAddr: 0x7EC, symBinAddr: 0x100002B8C, symSize: 0x78 }
  - { offsetInCU: 0x1DFFA, offset: 0x1DFFA, size: 0x8, addend: 0x0, symName: __ZNSt3__16vectorINS0_INS0_I8PositionNS_9allocatorIS1_EEEENS2_IS4_EEEENS2_IS6_EEED1B8ue170006Ev, symObjAddr: 0x864, symBinAddr: 0x100002C04, symSize: 0x78 }
  - { offsetInCU: 0x1E024, offset: 0x1E024, size: 0x8, addend: 0x0, symName: __ZNSt3__16vectorINS0_INS_12basic_stringIcNS_11char_traitsIcEENS_9allocatorIcEEEENS4_IS6_EEEENS4_IS8_EEED1B8ue170006Ev, symObjAddr: 0x8DC, symBinAddr: 0x100002C7C, symSize: 0x78 }
  - { offsetInCU: 0x1E04E, offset: 0x1E04E, size: 0x8, addend: 0x0, symName: __ZNSt3__16vectorINS0_INS0_IbNS_9allocatorIbEEEENS1_IS3_EEEENS1_IS5_EEED1B8ue170006Ev, symObjAddr: 0x954, symBinAddr: 0x100002CF4, symSize: 0x78 }
  - { offsetInCU: 0x1E078, offset: 0x1E078, size: 0x8, addend: 0x0, symName: __ZNSt3__15dequeI8PositionNS_9allocatorIS1_EEED1B8ue170006Ev, symObjAddr: 0x9CC, symBinAddr: 0x100002D6C, symSize: 0x78 }
  - { offsetInCU: 0x1E0A2, offset: 0x1E0A2, size: 0x8, addend: 0x0, symName: __ZN4SHIPC1Ev, symObjAddr: 0xA44, symBinAddr: 0x100002DE4, symSize: 0x78 }
  - { offsetInCU: 0x1E0CE, offset: 0x1E0CE, size: 0x8, addend: 0x0, symName: __ZN4SHIP13setSearchModeEb, symObjAddr: 0xABC, symBinAddr: 0x100002E5C, symSize: 0x124 }
  - { offsetInCU: 0x1E104, offset: 0x1E104, size: 0x8, addend: 0x0, symName: __ZN4SHIP9loadInputERNSt3__113basic_istreamIcNS0_11char_traitsIcEEEE, symObjAddr: 0xBE0, symBinAddr: 0x100002F80, symSize: 0x600 }
  - { offsetInCU: 0x1E15D, offset: 0x1E15D, size: 0x8, addend: 0x0, symName: __ZNSt3__112basic_stringIcNS_11char_traitsIcEENS_9allocatorIcEEEC1B8ue170006Ev, symObjAddr: 0x11E0, symBinAddr: 0x100003580, symSize: 0x78 }
  - { offsetInCU: 0x1E187, offset: 0x1E187, size: 0x8, addend: 0x0, symName: __ZNKSt3__112basic_stringIcNS_11char_traitsIcEENS_9allocatorIcEEE5emptyB8ue170006Ev, symObjAddr: 0x1588, symBinAddr: 0x100003928, symSize: 0x78 }
  - { offsetInCU: 0x1E1AD, offset: 0x1E1AD, size: 0x8, addend: 0x0, symName: __ZNSt3__112basic_stringIcNS_11char_traitsIcEENS_9allocatorIcEEEixB8ue170006Em, symObjAddr: 0x16D0, symBinAddr: 0x100003A70, symSize: 0x170 }
  - { offsetInCU: 0x1E1E2, offset: 0x1E1E2, size: 0x8, addend: 0x0, symName: __ZN4SHIP11loadMapModeERNSt3__113basic_istreamIcNS0_11char_traitsIcEEEE, symObjAddr: 0x1840, symBinAddr: 0x100003BE0, symSize: 0x1EC8 }
  - { offsetInCU: 0x1E2AE, offset: 0x1E2AE, size: 0x8, addend: 0x0, symName: __ZN4SHIP22loadCoordinateListModeERNSt3__113basic_istreamIcNS0_11char_traitsIcEEEE, symObjAddr: 0x3708, symBinAddr: 0x100005AA8, symSize: 0x1FDC }
  - { offsetInCU: 0x1E369, offset: 0x1E369, size: 0x8, addend: 0x0, symName: __ZN4SHIP9planRouteEv, symObjAddr: 0x56E4, symBinAddr: 0x100007A84, symSize: 0x410 }
  - { offsetInCU: 0x1E3B2, offset: 0x1E3B2, size: 0x8, addend: 0x0, symName: __ZN4SHIP25initializeSearchContainerEv, symObjAddr: 0x5AF4, symBinAddr: 0x100007E94, symSize: 0xCB4 }
  - { offsetInCU: 0x1E3DB, offset: 0x1E3DB, size: 0x8, addend: 0x0, symName: __ZNKSt3__15dequeI8PositionNS_9allocatorIS1_EEE5emptyB8ue170006Ev, symObjAddr: 0x67A8, symBinAddr: 0x100008B48, symSize: 0x78 }
  - { offsetInCU: 0x1E401, offset: 0x1E401, size: 0x8, addend: 0x0, symName: __ZNSt3__15dequeI8PositionNS_9allocatorIS1_EEE5frontEv, symObjAddr: 0x6820, symBinAddr: 0x100008BC0, symSize: 0x424 }
  - { offsetInCU: 0x1E429, offset: 0x1E429, size: 0x8, addend: 0x0, symName: __ZNSt3__15dequeI8PositionNS_9allocatorIS1_EEE9pop_frontEv, symObjAddr: 0x6C44, symBinAddr: 0x100008FE4, symSize: 0x54C }
  - { offsetInCU: 0x1E47E, offset: 0x1E47E, size: 0x8, addend: 0x0, symName: __ZNK8PositioneqERKS_, symObjAddr: 0x7190, symBinAddr: 0x100009530, symSize: 0x3C0 }
  - { offsetInCU: 0x1E4B2, offset: 0x1E4B2, size: 0x8, addend: 0x0, symName: __ZN4SHIP15reconstructPathEv, symObjAddr: 0x7550, symBinAddr: 0x1000098F0, symSize: 0x217C }
  - { offsetInCU: 0x1E510, offset: 0x1E510, size: 0x8, addend: 0x0, symName: __ZN4SHIP17discoverNeighborsERK8Position, symObjAddr: 0x96CC, symBinAddr: 0x10000BA6C, symSize: 0x1CF4 }
  - { offsetInCU: 0x1E62B, offset: 0x1E62B, size: 0x8, addend: 0x0, symName: __ZNSt3__15dequeI8PositionNS_9allocatorIS1_EEE5clearEv, symObjAddr: 0xB3C0, symBinAddr: 0x10000D760, symSize: 0x718 }
  - { offsetInCU: 0x1E690, offset: 0x1E690, size: 0x8, addend: 0x0, symName: __ZNSt3__15dequeI8PositionNS_9allocatorIS1_EEE9push_backERKS1_, symObjAddr: 0xBAD8, symBinAddr: 0x10000DE78, symSize: 0x3A8 }
  - { offsetInCU: 0x1E6D9, offset: 0x1E6D9, size: 0x8, addend: 0x0, symName: __ZNSt3__16vectorIbNS_9allocatorIbEEEC1EmRKb, symObjAddr: 0xBE80, symBinAddr: 0x10000E220, symSize: 0x88 }
  - { offsetInCU: 0x1E723, offset: 0x1E723, size: 0x8, addend: 0x0, symName: __ZNSt3__16vectorINS0_IbNS_9allocatorIbEEEENS1_IS3_EEEC1EmRKS3_, symObjAddr: 0xBF08, symBinAddr: 0x10000E2A8, symSize: 0x88 }
  - { offsetInCU: 0x1E76D, offset: 0x1E76D, size: 0x8, addend: 0x0, symName: __ZNSt3__16vectorINS0_INS0_IbNS_9allocatorIbEEEENS1_IS3_EEEENS1_IS5_EEEC1EmRKS5_, symObjAddr: 0xBF90, symBinAddr: 0x10000E330, symSize: 0x88 }
  - { offsetInCU: 0x1E7B7, offset: 0x1E7B7, size: 0x8, addend: 0x0, symName: __ZNSt3__16vectorINS0_INS0_IbNS_9allocatorIbEEEENS1_IS3_EEEENS1_IS5_EEEaSB8ue170006EOS7_, symObjAddr: 0xC018, symBinAddr: 0x10000E3B8, symSize: 0x104 }
  - { offsetInCU: 0x1E7EE, offset: 0x1E7EE, size: 0x8, addend: 0x0, symName: __ZNSt3__16vectorINS0_IbNS_9allocatorIbEEEENS1_IS3_EEED1B8ue170006Ev, symObjAddr: 0xC11C, symBinAddr: 0x10000E4BC, symSize: 0x78 }
  - { offsetInCU: 0x1E818, offset: 0x1E818, size: 0x8, addend: 0x0, symName: __ZNSt3__16vectorIbNS_9allocatorIbEEED1B8ue170006Ev, symObjAddr: 0xC194, symBinAddr: 0x10000E534, symSize: 0x78 }
  - { offsetInCU: 0x1E842, offset: 0x1E842, size: 0x8, addend: 0x0, symName: __ZNSt3__16vectorI8PositionNS_9allocatorIS1_EEEC1EmRKS1_, symObjAddr: 0xC20C, symBinAddr: 0x10000E5AC, symSize: 0x88 }
  - { offsetInCU: 0x1E88C, offset: 0x1E88C, size: 0x8, addend: 0x0, symName: __ZNSt3__16vectorINS0_I8PositionNS_9allocatorIS1_EEEENS2_IS4_EEEC1EmRKS4_, symObjAddr: 0xC294, symBinAddr: 0x10000E634, symSize: 0x88 }
  - { offsetInCU: 0x1E8D6, offset: 0x1E8D6, size: 0x8, addend: 0x0, symName: __ZNSt3__16vectorINS0_INS0_I8PositionNS_9allocatorIS1_EEEENS2_IS4_EEEENS2_IS6_EEEC1EmRKS6_, symObjAddr: 0xC31C, symBinAddr: 0x10000E6BC, symSize: 0x88 }
  - { offsetInCU: 0x1E920, offset: 0x1E920, size: 0x8, addend: 0x0, symName: __ZNSt3__16vectorINS0_INS0_I8PositionNS_9allocatorIS1_EEEENS2_IS4_EEEENS2_IS6_EEEaSB8ue170006EOS8_, symObjAddr: 0xC3A4, symBinAddr: 0x10000E744, symSize: 0x104 }
  - { offsetInCU: 0x1E957, offset: 0x1E957, size: 0x8, addend: 0x0, symName: __ZNSt3__16vectorINS0_I8PositionNS_9allocatorIS1_EEEENS2_IS4_EEED1B8ue170006Ev, symObjAddr: 0xC4A8, symBinAddr: 0x10000E848, symSize: 0x78 }
  - { offsetInCU: 0x1E981, offset: 0x1E981, size: 0x8, addend: 0x0, symName: __ZNSt3__16vectorINS0_INS0_IbNS_9allocatorIbEEEENS1_IS3_EEEENS1_IS5_EEEixB8ue170006Em, symObjAddr: 0xC520, symBinAddr: 0x10000E8C0, symSize: 0x1D4 }
  - { offsetInCU: 0x1E9B8, offset: 0x1E9B8, size: 0x8, addend: 0x0, symName: __ZNSt3__16vectorINS0_IbNS_9allocatorIbEEEENS1_IS3_EEEixB8ue170006Em, symObjAddr: 0xC6F4, symBinAddr: 0x10000EA94, symSize: 0x1D4 }
  - { offsetInCU: 0x1E9EF, offset: 0x1E9EF, size: 0x8, addend: 0x0, symName: __ZNSt3__16vectorIbNS_9allocatorIbEEEixB8ue170006Em, symObjAddr: 0xC8C8, symBinAddr: 0x10000EC68, symSize: 0x26C }
  - { offsetInCU: 0x1EA26, offset: 0x1EA26, size: 0x8, addend: 0x0, symName: __ZNSt3__115__bit_referenceINS_6vectorIbNS_9allocatorIbEEEELb1EEaSB8ue170006Eb, symObjAddr: 0xCB34, symBinAddr: 0x10000EED4, symSize: 0x304 }
  - { offsetInCU: 0x1EA5A, offset: 0x1EA5A, size: 0x8, addend: 0x0, symName: __ZNK4SHIP12outputResultERNSt3__113basic_ostreamIcNS0_11char_traitsIcEEEEc, symObjAddr: 0xCE38, symBinAddr: 0x10000F1D8, symSize: 0x18AC }
  - { offsetInCU: 0x1EB53, offset: 0x1EB53, size: 0x8, addend: 0x0, symName: __ZNKSt3__16vectorINS0_INS_12basic_stringIcNS_11char_traitsIcEENS_9allocatorIcEEEENS4_IS6_EEEENS4_IS8_EEEixB8ue170006Em, symObjAddr: 0xEABC, symBinAddr: 0x100010E5C, symSize: 0x1D4 }
  - { offsetInCU: 0x1EB8A, offset: 0x1EB8A, size: 0x8, addend: 0x0, symName: __ZNKSt3__16vectorINS_12basic_stringIcNS_11char_traitsIcEENS_9allocatorIcEEEENS4_IS6_EEEixB8ue170006Em, symObjAddr: 0xEC90, symBinAddr: 0x100011030, symSize: 0x1D4 }
  - { offsetInCU: 0x1EBC1, offset: 0x1EBC1, size: 0x8, addend: 0x0, symName: __ZNKSt3__16vectorI8PositionNS_9allocatorIS1_EEE5emptyB8ue170006Ev, symObjAddr: 0xEE64, symBinAddr: 0x100011204, symSize: 0xF8 }
  - { offsetInCU: 0x1EBE7, offset: 0x1EBE7, size: 0x8, addend: 0x0, symName: __ZNKSt3__16vectorI8PositionNS_9allocatorIS1_EEE5beginB8ue170006Ev, symObjAddr: 0xEF5C, symBinAddr: 0x1000112FC, symSize: 0x2B0 }
  - { offsetInCU: 0x1EC10, offset: 0x1EC10, size: 0x8, addend: 0x0, symName: __ZNKSt3__16vectorI8PositionNS_9allocatorIS1_EEE3endB8ue170006Ev, symObjAddr: 0xF20C, symBinAddr: 0x1000115AC, symSize: 0x2B4 }
  - { offsetInCU: 0x1EC39, offset: 0x1EC39, size: 0x8, addend: 0x0, symName: __ZNKSt3__111__wrap_iterIPK8PositionEdeB8ue170006Ev, symObjAddr: 0xF584, symBinAddr: 0x100011924, symSize: 0xF4 }
  - { offsetInCU: 0x1EC5F, offset: 0x1EC5F, size: 0x8, addend: 0x0, symName: __ZNKSt3__112basic_stringIcNS_11char_traitsIcEENS_9allocatorIcEEEixB8ue170006Em, symObjAddr: 0xF678, symBinAddr: 0x100011A18, symSize: 0x170 }
  - { offsetInCU: 0x1EC94, offset: 0x1EC94, size: 0x8, addend: 0x0, symName: __ZNSt3__111__wrap_iterIPK8PositionEppB8ue170006Ev, symObjAddr: 0xF7E8, symBinAddr: 0x100011B88, symSize: 0x1A8 }
  - { offsetInCU: 0x1ECBA, offset: 0x1ECBA, size: 0x8, addend: 0x0, symName: __ZNKSt3__19basic_iosIcNS_11char_traitsIcEEEntB8ue170006Ev, symObjAddr: 0xF990, symBinAddr: 0x100011D30, symSize: 0xF8 }
  - { offsetInCU: 0x1ECE0, offset: 0x1ECE0, size: 0x8, addend: 0x0, symName: __ZNSt3__114numeric_limitsIlE3maxB8ue170006Ev, symObjAddr: 0xFA88, symBinAddr: 0x100011E28, symSize: 0x14 }
  - { offsetInCU: 0x1ECF4, offset: 0x1ECF4, size: 0x8, addend: 0x0, symName: __ZNSt3__16vectorINS0_INS_12basic_stringIcNS_11char_traitsIcEENS_9allocatorIcEEEENS4_IS6_EEEENS4_IS8_EEE6resizeEmRKS8_, symObjAddr: 0xFA9C, symBinAddr: 0x100011E3C, symSize: 0x24C }
  - { offsetInCU: 0x1ED49, offset: 0x1ED49, size: 0x8, addend: 0x0, symName: __ZNSt3__16vectorINS_12basic_stringIcNS_11char_traitsIcEENS_9allocatorIcEEEENS4_IS6_EEEC1Em, symObjAddr: 0xFCE8, symBinAddr: 0x100012088, symSize: 0x80 }
  - { offsetInCU: 0x1ED84, offset: 0x1ED84, size: 0x8, addend: 0x0, symName: __ZNSt3__16vectorINS_12basic_stringIcNS_11char_traitsIcEENS_9allocatorIcEEEENS4_IS6_EEED1B8ue170006Ev, symObjAddr: 0xFD68, symBinAddr: 0x100012108, symSize: 0x78 }
  - { offsetInCU: 0x1EDAE, offset: 0x1EDAE, size: 0x8, addend: 0x0, symName: __ZNKSt3__112basic_stringIcNS_11char_traitsIcEENS_9allocatorIcEEE17find_first_not_ofB8ue170006EPKcm, symObjAddr: 0xFDE0, symBinAddr: 0x100012180, symSize: 0xB8 }
  - { offsetInCU: 0x1EDF4, offset: 0x1EDF4, size: 0x8, addend: 0x0, symName: __ZNKSt3__112basic_stringIcNS_11char_traitsIcEENS_9allocatorIcEEE16find_last_not_ofB8ue170006EPKcm, symObjAddr: 0xFE98, symBinAddr: 0x100012238, symSize: 0xB8 }
  - { offsetInCU: 0x1EE3A, offset: 0x1EE3A, size: 0x8, addend: 0x0, symName: __ZNKSt3__112basic_stringIcNS_11char_traitsIcEENS_9allocatorIcEEE6substrB8ue170006Emm, symObjAddr: 0x10070, symBinAddr: 0x100012410, symSize: 0x2E0 }
  - { offsetInCU: 0x1EE81, offset: 0x1EE81, size: 0x8, addend: 0x0, symName: __ZNKSt3__112basic_stringIcNS_11char_traitsIcEENS_9allocatorIcEEE4sizeB8ue170006Ev, symObjAddr: 0x10350, symBinAddr: 0x1000126F0, symSize: 0x98 }
  - { offsetInCU: 0x1EEA7, offset: 0x1EEA7, size: 0x8, addend: 0x0, symName: __ZNSt3__113basic_ostreamIcNS_11char_traitsIcEEElsB8ue170006EPFRS3_S4_E, symObjAddr: 0x103E8, symBinAddr: 0x100012788, symSize: 0x108 }
  - { offsetInCU: 0x1EEDB, offset: 0x1EEDB, size: 0x8, addend: 0x0, symName: __ZNSt3__16vectorINS0_INS_12basic_stringIcNS_11char_traitsIcEENS_9allocatorIcEEEENS4_IS6_EEEENS4_IS8_EEEixB8ue170006Em, symObjAddr: 0x108C8, symBinAddr: 0x100012C68, symSize: 0x1D4 }
  - { offsetInCU: 0x1EF12, offset: 0x1EF12, size: 0x8, addend: 0x0, symName: __ZNSt3__16vectorINS_12basic_stringIcNS_11char_traitsIcEENS_9allocatorIcEEEENS4_IS6_EEEixB8ue170006Em, symObjAddr: 0x10A9C, symBinAddr: 0x100012E3C, symSize: 0x1D4 }
  - { offsetInCU: 0x1EF49, offset: 0x1EF49, size: 0x8, addend: 0x0, symName: __ZNSt3__112basic_stringIcNS_11char_traitsIcEENS_9allocatorIcEEEC1B8ue170006Emc, symObjAddr: 0x10C70, symBinAddr: 0x100013010, symSize: 0x88 }
  - { offsetInCU: 0x1EF91, offset: 0x1EF91, size: 0x8, addend: 0x0, symName: __ZNSt3__16vectorINS_12basic_stringIcNS_11char_traitsIcEENS_9allocatorIcEEEENS4_IS6_EEEC1EmRKS6_, symObjAddr: 0x10CF8, symBinAddr: 0x100013098, symSize: 0x88 }
  - { offsetInCU: 0x1EFDB, offset: 0x1EFDB, size: 0x8, addend: 0x0, symName: __ZNKSt3__19basic_iosIcNS_11char_traitsIcEEEcvbB8ue170006Ev, symObjAddr: 0x10D80, symBinAddr: 0x100013120, symSize: 0xFC }
  - { offsetInCU: 0x1F001, offset: 0x1F001, size: 0x8, addend: 0x0, symName: __ZNKSt3__112basic_stringIcNS_11char_traitsIcEENS_9allocatorIcEEE5c_strB8ue170006Ev, symObjAddr: 0x10E7C, symBinAddr: 0x10001321C, symSize: 0x6C }
  - { offsetInCU: 0x1F02C, offset: 0x1F02C, size: 0x8, addend: 0x0, symName: __ZNSt3__14pairIiiEC1B8ue170006IiiLPv0EEEOT_OT0_, symObjAddr: 0x10EE8, symBinAddr: 0x100013288, symSize: 0x88 }
  - { offsetInCU: 0x1F08A, offset: 0x1F08A, size: 0x8, addend: 0x0, symName: __ZNSt3__16vectorINS_4pairIiiEENS_9allocatorIS2_EEEC1B8ue170006ESt16initializer_listIS2_E, symObjAddr: 0x10F70, symBinAddr: 0x100013310, symSize: 0x29C }
  - { offsetInCU: 0x1F0CA, offset: 0x1F0CA, size: 0x8, addend: 0x0, symName: __ZNSt3__16vectorINS_4pairIiiEENS_9allocatorIS2_EEE5beginB8ue170006Ev, symObjAddr: 0x1120C, symBinAddr: 0x1000135AC, symSize: 0x2B0 }
  - { offsetInCU: 0x1F0F3, offset: 0x1F0F3, size: 0x8, addend: 0x0, symName: __ZNSt3__16vectorINS_4pairIiiEENS_9allocatorIS2_EEE3endB8ue170006Ev, symObjAddr: 0x114BC, symBinAddr: 0x10001385C, symSize: 0x2B4 }
  - { offsetInCU: 0x1F11C, offset: 0x1F11C, size: 0x8, addend: 0x0, symName: __ZNKSt3__111__wrap_iterIPNS_4pairIiiEEEdeB8ue170006Ev, symObjAddr: 0x11834, symBinAddr: 0x100013BD4, symSize: 0xF4 }
  - { offsetInCU: 0x1F142, offset: 0x1F142, size: 0x8, addend: 0x0, symName: __ZNK4SHIP11isValidMoveERK8Position, symObjAddr: 0x11928, symBinAddr: 0x100013CC8, symSize: 0xD9C }
  - { offsetInCU: 0x1F17C, offset: 0x1F17C, size: 0x8, addend: 0x0, symName: __ZN4SHIP20addToSearchContainerERK8PositionS2_, symObjAddr: 0x126C4, symBinAddr: 0x100014A64, symSize: 0x9C0 }
  - { offsetInCU: 0x1F1C6, offset: 0x1F1C6, size: 0x8, addend: 0x0, symName: __ZNSt3__111__wrap_iterIPNS_4pairIiiEEEppB8ue170006Ev, symObjAddr: 0x13084, symBinAddr: 0x100015424, symSize: 0x1A8 }
  - { offsetInCU: 0x1F1EC, offset: 0x1F1EC, size: 0x8, addend: 0x0, symName: __ZNKSt3__115__bit_referenceINS_6vectorIbNS_9allocatorIbEEEELb1EEcvbB8ue170006Ev, symObjAddr: 0x1322C, symBinAddr: 0x1000155CC, symSize: 0x178 }
  - { offsetInCU: 0x1F212, offset: 0x1F212, size: 0x8, addend: 0x0, symName: __ZNSt3__16vectorINS_4pairIiiEENS_9allocatorIS2_EEED1B8ue170006Ev, symObjAddr: 0x133A4, symBinAddr: 0x100015744, symSize: 0x78 }
  - { offsetInCU: 0x1F23C, offset: 0x1F23C, size: 0x8, addend: 0x0, symName: __ZNKSt3__16vectorINS0_INS0_IbNS_9allocatorIbEEEENS1_IS3_EEEENS1_IS5_EEEixB8ue170006Em, symObjAddr: 0x1341C, symBinAddr: 0x1000157BC, symSize: 0x1D4 }
  - { offsetInCU: 0x1F273, offset: 0x1F273, size: 0x8, addend: 0x0, symName: __ZNKSt3__16vectorINS0_IbNS_9allocatorIbEEEENS1_IS3_EEEixB8ue170006Em, symObjAddr: 0x135F0, symBinAddr: 0x100015990, symSize: 0x1D4 }
  - { offsetInCU: 0x1F2AA, offset: 0x1F2AA, size: 0x8, addend: 0x0, symName: __ZNKSt3__16vectorIbNS_9allocatorIbEEEixB8ue170006Em, symObjAddr: 0x137C4, symBinAddr: 0x100015B64, symSize: 0x26C }
  - { offsetInCU: 0x1F2E1, offset: 0x1F2E1, size: 0x8, addend: 0x0, symName: __ZNKSt3__121__bit_const_referenceINS_6vectorIbNS_9allocatorIbEEEEEcvbB8ue170006Ev, symObjAddr: 0x13A30, symBinAddr: 0x100015DD0, symSize: 0x178 }
  - { offsetInCU: 0x1F307, offset: 0x1F307, size: 0x8, addend: 0x0, symName: __ZNSt3__15dequeI8PositionNS_9allocatorIS1_EEE10push_frontERKS1_, symObjAddr: 0x13BA8, symBinAddr: 0x100015F48, symSize: 0x434 }
  - { offsetInCU: 0x1F350, offset: 0x1F350, size: 0x8, addend: 0x0, symName: __ZNSt3__16vectorINS0_INS0_I8PositionNS_9allocatorIS1_EEEENS2_IS4_EEEENS2_IS6_EEEixB8ue170006Em, symObjAddr: 0x13FDC, symBinAddr: 0x10001637C, symSize: 0x1D4 }
  - { offsetInCU: 0x1F387, offset: 0x1F387, size: 0x8, addend: 0x0, symName: __ZNSt3__16vectorINS0_I8PositionNS_9allocatorIS1_EEEENS2_IS4_EEEixB8ue170006Em, symObjAddr: 0x141B0, symBinAddr: 0x100016550, symSize: 0x1D4 }
  - { offsetInCU: 0x1F3BE, offset: 0x1F3BE, size: 0x8, addend: 0x0, symName: __ZNSt3__16vectorI8PositionNS_9allocatorIS1_EEEixB8ue170006Em, symObjAddr: 0x14384, symBinAddr: 0x100016724, symSize: 0x1D4 }
  - { offsetInCU: 0x1F3F5, offset: 0x1F3F5, size: 0x8, addend: 0x0, symName: __ZNSt3__16vectorI8PositionNS_9allocatorIS1_EEE9push_backB8ue170006ERKS1_, symObjAddr: 0x14558, symBinAddr: 0x1000168F8, symSize: 0x1FC }
  - { offsetInCU: 0x1F42C, offset: 0x1F42C, size: 0x8, addend: 0x0, symName: __ZNSt3__16vectorI8PositionNS_9allocatorIS1_EEE5beginB8ue170006Ev, symObjAddr: 0x14A9C, symBinAddr: 0x100016E3C, symSize: 0x2B0 }
  - { offsetInCU: 0x1F455, offset: 0x1F455, size: 0x8, addend: 0x0, symName: __ZNSt3__16vectorI8PositionNS_9allocatorIS1_EEE3endB8ue170006Ev, symObjAddr: 0x14D4C, symBinAddr: 0x1000170EC, symSize: 0x2B4 }
  - { offsetInCU: 0x1F47E, offset: 0x1F47E, size: 0x8, addend: 0x0, symName: _main, symObjAddr: 0x15AFC, symBinAddr: 0x100017E9C, symSize: 0x6C4 }
  - { offsetInCU: 0x1F516, offset: 0x1F516, size: 0x8, addend: 0x0, symName: __ZN4SHIPD1Ev, symObjAddr: 0x161C0, symBinAddr: 0x100018560, symSize: 0x78 }
  - { offsetInCU: 0x1F542, offset: 0x1F542, size: 0x8, addend: 0x0, symName: __ZN8PositionC2Eiii, symObjAddr: 0x16238, symBinAddr: 0x1000185D8, symSize: 0x1D0 }
  - { offsetInCU: 0x1F596, offset: 0x1F596, size: 0x8, addend: 0x0, symName: __ZNKSt3__111__wrap_iterIPK8PositionE4baseB8ue170006Ev, symObjAddr: 0x164A4, symBinAddr: 0x100018844, symSize: 0xAC }
  - { offsetInCU: 0x1F5BC, offset: 0x1F5BC, size: 0x8, addend: 0x0, symName: __ZNSt3__123__libcpp_numeric_limitsIlLb1EE3maxB8ue170006Ev, symObjAddr: 0x16550, symBinAddr: 0x1000188F0, symSize: 0x8 }
  - { offsetInCU: 0x1F5D0, offset: 0x1F5D0, size: 0x8, addend: 0x0, symName: __ZNSt3__14pairIiiEC2B8ue170006IiiLPv0EEEOT_OT0_, symObjAddr: 0x16558, symBinAddr: 0x1000188F8, symSize: 0x2B0 }
  - { offsetInCU: 0x1F62E, offset: 0x1F62E, size: 0x8, addend: 0x0, symName: __ZNKSt3__111__wrap_iterIPNS_4pairIiiEEE4baseB8ue170006Ev, symObjAddr: 0x168A4, symBinAddr: 0x100018C44, symSize: 0xAC }
  - { offsetInCU: 0x1F654, offset: 0x1F654, size: 0x8, addend: 0x0, symName: __ZN4SHIPD2Ev, symObjAddr: 0x16950, symBinAddr: 0x100018CF0, symSize: 0xAC }
  - { offsetInCU: 0x1F680, offset: 0x1F680, size: 0x8, addend: 0x0, symName: __ZNSt3__15dequeI8PositionNS_9allocatorIS1_EEEC2B8ue170006Ev, symObjAddr: 0x169FC, symBinAddr: 0x100018D9C, symSize: 0x324 }
  - { offsetInCU: 0x1F6AB, offset: 0x1F6AB, size: 0x8, addend: 0x0, symName: __ZNSt3__114__split_bufferIP8PositionNS_9allocatorIS2_EEEC1B8ue170006Ev, symObjAddr: 0x16D20, symBinAddr: 0x1000190C0, symSize: 0x78 }
  - { offsetInCU: 0x1F6DA, offset: 0x1F6DA, size: 0x8, addend: 0x0, symName: __ZNSt3__117__compressed_pairImNS_9allocatorI8PositionEEEC1B8ue170006IiNS_18__default_init_tagEEEOT_OT0_, symObjAddr: 0x16D98, symBinAddr: 0x100019138, symSize: 0x88 }
  - { offsetInCU: 0x1F732, offset: 0x1F732, size: 0x8, addend: 0x0, symName: __ZNKSt3__15dequeI8PositionNS_9allocatorIS1_EEE14__annotate_newB8ue170006Em, symObjAddr: 0x16E2C, symBinAddr: 0x1000191CC, symSize: 0x21C }
  - { offsetInCU: 0x1F767, offset: 0x1F767, size: 0x8, addend: 0x0, symName: __ZNSt3__114__split_bufferIP8PositionNS_9allocatorIS2_EEEC2B8ue170006Ev, symObjAddr: 0x17048, symBinAddr: 0x1000193E8, symSize: 0x378 }
  - { offsetInCU: 0x1F797, offset: 0x1F797, size: 0x8, addend: 0x0, symName: __ZNSt3__117__compressed_pairIPP8PositionNS_9allocatorIS2_EEEC1B8ue170006IDnNS_18__default_init_tagEEEOT_OT0_, symObjAddr: 0x173C0, symBinAddr: 0x100019760, symSize: 0x88 }
  - { offsetInCU: 0x1F7EF, offset: 0x1F7EF, size: 0x8, addend: 0x0, symName: __ZNSt3__117__compressed_pairIPP8PositionNS_9allocatorIS2_EEEC2B8ue170006IDnNS_18__default_init_tagEEEOT_OT0_, symObjAddr: 0x17448, symBinAddr: 0x1000197E8, symSize: 0x140 }
  - { offsetInCU: 0x1F847, offset: 0x1F847, size: 0x8, addend: 0x0, symName: __ZNSt3__122__compressed_pair_elemIPP8PositionLi0ELb0EEC2B8ue170006IDnvEEOT_, symObjAddr: 0x17588, symBinAddr: 0x100019928, symSize: 0xBC }
  - { offsetInCU: 0x1F889, offset: 0x1F889, size: 0x8, addend: 0x0, symName: __ZNSt3__122__compressed_pair_elemINS_9allocatorIP8PositionEELi1ELb1EEC2B8ue170006ENS_18__default_init_tagE, symObjAddr: 0x17644, symBinAddr: 0x1000199E4, symSize: 0x84 }
  - { offsetInCU: 0x1F8BD, offset: 0x1F8BD, size: 0x8, addend: 0x0, symName: __ZNSt3__19allocatorIP8PositionEC2B8ue170006Ev, symObjAddr: 0x176C8, symBinAddr: 0x100019A68, symSize: 0x84 }
  - { offsetInCU: 0x1F8E7, offset: 0x1F8E7, size: 0x8, addend: 0x0, symName: __ZNSt3__116__non_trivial_ifILb1ENS_9allocatorIP8PositionEEEC2B8ue170006Ev, symObjAddr: 0x1774C, symBinAddr: 0x100019AEC, symSize: 0x54 }
  - { offsetInCU: 0x1F911, offset: 0x1F911, size: 0x8, addend: 0x0, symName: __ZNSt3__117__compressed_pairImNS_9allocatorI8PositionEEEC2B8ue170006IiNS_18__default_init_tagEEEOT_OT0_, symObjAddr: 0x177A0, symBinAddr: 0x100019B40, symSize: 0x140 }
  - { offsetInCU: 0x1F969, offset: 0x1F969, size: 0x8, addend: 0x0, symName: __ZNSt3__122__compressed_pair_elemImLi0ELb0EEC2B8ue170006IivEEOT_, symObjAddr: 0x178E0, symBinAddr: 0x100019C80, symSize: 0x16C }
  - { offsetInCU: 0x1F9AB, offset: 0x1F9AB, size: 0x8, addend: 0x0, symName: __ZNSt3__122__compressed_pair_elemINS_9allocatorI8PositionEELi1ELb1EEC2B8ue170006ENS_18__default_init_tagE, symObjAddr: 0x17A4C, symBinAddr: 0x100019DEC, symSize: 0x84 }
  - { offsetInCU: 0x1F9DF, offset: 0x1F9DF, size: 0x8, addend: 0x0, symName: __ZNSt3__19allocatorI8PositionEC2B8ue170006Ev, symObjAddr: 0x17AD0, symBinAddr: 0x100019E70, symSize: 0x84 }
  - { offsetInCU: 0x1FA09, offset: 0x1FA09, size: 0x8, addend: 0x0, symName: __ZNSt3__116__non_trivial_ifILb1ENS_9allocatorI8PositionEEEC2B8ue170006Ev, symObjAddr: 0x17B54, symBinAddr: 0x100019EF4, symSize: 0x54 }
  - { offsetInCU: 0x1FA33, offset: 0x1FA33, size: 0x8, addend: 0x0, symName: __ZNKSt3__15dequeI8PositionNS_9allocatorIS1_EEE18__annotate_from_toB8ue170006EmmNS4_22__asan_annotation_typeENS4_23__asan_annotation_placeE, symObjAddr: 0x17BA8, symBinAddr: 0x100019F48, symSize: 0x1694 }
  - { offsetInCU: 0x1FBEF, offset: 0x1FBEF, size: 0x8, addend: 0x0, symName: __ZNKSt3__114__split_bufferIP8PositionNS_9allocatorIS2_EEE4sizeB8ue170006Ev, symObjAddr: 0x1923C, symBinAddr: 0x10001B5DC, symSize: 0xFC }
  - { offsetInCU: 0x1FC15, offset: 0x1FC15, size: 0x8, addend: 0x0, symName: __ZNKSt3__114__split_bufferIP8PositionNS_9allocatorIS2_EEE5beginB8ue170006Ev, symObjAddr: 0x19338, symBinAddr: 0x10001B6D8, symSize: 0xB0 }
  - { offsetInCU: 0x1FC3B, offset: 0x1FC3B, size: 0x8, addend: 0x0, symName: __ZNKSt3__15dequeI8PositionNS_9allocatorIS1_EEE4sizeB8ue170006Ev, symObjAddr: 0x193E8, symBinAddr: 0x10001B788, symSize: 0xF8 }
  - { offsetInCU: 0x1FC61, offset: 0x1FC61, size: 0x8, addend: 0x0, symName: __ZNKSt3__15dequeI8PositionNS_9allocatorIS1_EEE44__annotate_double_ended_contiguous_containerB8ue170006EPKvS6_S6_S6_S6_S6_, symObjAddr: 0x194F4, symBinAddr: 0x10001B894, symSize: 0x78 }
  - { offsetInCU: 0x1FCC9, offset: 0x1FCC9, size: 0x8, addend: 0x0, symName: __ZNKSt3__15dequeI8PositionNS_9allocatorIS1_EEE6__sizeB8ue170006Ev, symObjAddr: 0x1956C, symBinAddr: 0x10001B90C, symSize: 0x100 }
  - { offsetInCU: 0x1FCEF, offset: 0x1FCEF, size: 0x8, addend: 0x0, symName: __ZNKSt3__117__compressed_pairImNS_9allocatorI8PositionEEE5firstB8ue170006Ev, symObjAddr: 0x1966C, symBinAddr: 0x10001BA0C, symSize: 0x124 }
  - { offsetInCU: 0x1FD15, offset: 0x1FD15, size: 0x8, addend: 0x0, symName: __ZNKSt3__122__compressed_pair_elemImLi0ELb0EE5__getB8ue170006Ev, symObjAddr: 0x19790, symBinAddr: 0x10001BB30, symSize: 0xAC }
  - { offsetInCU: 0x1FD3B, offset: 0x1FD3B, size: 0x8, addend: 0x0, symName: __ZNSt3__16vectorINS0_INS0_IbNS_9allocatorIbEEEENS1_IS3_EEEENS1_IS5_EEEC2B8ue170006Ev, symObjAddr: 0x1983C, symBinAddr: 0x10001BBDC, symSize: 0x340 }
  - { offsetInCU: 0x1FD66, offset: 0x1FD66, size: 0x8, addend: 0x0, symName: __ZNSt3__117__compressed_pairIPNS_6vectorINS1_IbNS_9allocatorIbEEEENS2_IS4_EEEENS2_IS6_EEEC1B8ue170006IDnNS_18__default_init_tagEEEOT_OT0_, symObjAddr: 0x19B7C, symBinAddr: 0x10001BF1C, symSize: 0x88 }
  - { offsetInCU: 0x1FDBE, offset: 0x1FDBE, size: 0x8, addend: 0x0, symName: __ZNSt3__117__compressed_pairIPNS_6vectorINS1_IbNS_9allocatorIbEEEENS2_IS4_EEEENS2_IS6_EEEC2B8ue170006IDnNS_18__default_init_tagEEEOT_OT0_, symObjAddr: 0x19C04, symBinAddr: 0x10001BFA4, symSize: 0x140 }
  - { offsetInCU: 0x1FE16, offset: 0x1FE16, size: 0x8, addend: 0x0, symName: __ZNSt3__122__compressed_pair_elemIPNS_6vectorINS1_IbNS_9allocatorIbEEEENS2_IS4_EEEELi0ELb0EEC2B8ue170006IDnvEEOT_, symObjAddr: 0x19D44, symBinAddr: 0x10001C0E4, symSize: 0xBC }
  - { offsetInCU: 0x1FE58, offset: 0x1FE58, size: 0x8, addend: 0x0, symName: __ZNSt3__122__compressed_pair_elemINS_9allocatorINS_6vectorINS2_IbNS1_IbEEEENS1_IS4_EEEEEELi1ELb1EEC2B8ue170006ENS_18__default_init_tagE, symObjAddr: 0x19E00, symBinAddr: 0x10001C1A0, symSize: 0x84 }
  - { offsetInCU: 0x1FE8C, offset: 0x1FE8C, size: 0x8, addend: 0x0, symName: __ZNSt3__19allocatorINS_6vectorINS1_IbNS0_IbEEEENS0_IS3_EEEEEC2B8ue170006Ev, symObjAddr: 0x19E84, symBinAddr: 0x10001C224, symSize: 0x84 }
  - { offsetInCU: 0x1FEB6, offset: 0x1FEB6, size: 0x8, addend: 0x0, symName: __ZNSt3__116__non_trivial_ifILb1ENS_9allocatorINS_6vectorINS2_IbNS1_IbEEEENS1_IS4_EEEEEEEC2B8ue170006Ev, symObjAddr: 0x19F08, symBinAddr: 0x10001C2A8, symSize: 0x54 }
  - { offsetInCU: 0x1FEE0, offset: 0x1FEE0, size: 0x8, addend: 0x0, symName: __ZNSt3__16vectorINS0_INS_12basic_stringIcNS_11char_traitsIcEENS_9allocatorIcEEEENS4_IS6_EEEENS4_IS8_EEEC2B8ue170006Ev, symObjAddr: 0x19F5C, symBinAddr: 0x10001C2FC, symSize: 0x340 }
  - { offsetInCU: 0x1FF0B, offset: 0x1FF0B, size: 0x8, addend: 0x0, symName: __ZNSt3__117__compressed_pairIPNS_6vectorINS_12basic_stringIcNS_11char_traitsIcEENS_9allocatorIcEEEENS5_IS7_EEEENS5_IS9_EEEC1B8ue170006IDnNS_18__default_init_tagEEEOT_OT0_, symObjAddr: 0x1A29C, symBinAddr: 0x10001C63C, symSize: 0x88 }
  - { offsetInCU: 0x1FF63, offset: 0x1FF63, size: 0x8, addend: 0x0, symName: __ZNSt3__117__compressed_pairIPNS_6vectorINS_12basic_stringIcNS_11char_traitsIcEENS_9allocatorIcEEEENS5_IS7_EEEENS5_IS9_EEEC2B8ue170006IDnNS_18__default_init_tagEEEOT_OT0_, symObjAddr: 0x1A324, symBinAddr: 0x10001C6C4, symSize: 0x140 }
  - { offsetInCU: 0x1FFBB, offset: 0x1FFBB, size: 0x8, addend: 0x0, symName: __ZNSt3__122__compressed_pair_elemIPNS_6vectorINS_12basic_stringIcNS_11char_traitsIcEENS_9allocatorIcEEEENS5_IS7_EEEELi0ELb0EEC2B8ue170006IDnvEEOT_, symObjAddr: 0x1A464, symBinAddr: 0x10001C804, symSize: 0xBC }
  - { offsetInCU: 0x1FFFD, offset: 0x1FFFD, size: 0x8, addend: 0x0, symName: __ZNSt3__122__compressed_pair_elemINS_9allocatorINS_6vectorINS_12basic_stringIcNS_11char_traitsIcEENS1_IcEEEENS1_IS7_EEEEEELi1ELb1EEC2B8ue170006ENS_18__default_init_tagE, symObjAddr: 0x1A520, symBinAddr: 0x10001C8C0, symSize: 0x84 }
  - { offsetInCU: 0x20031, offset: 0x20031, size: 0x8, addend: 0x0, symName: __ZNSt3__19allocatorINS_6vectorINS_12basic_stringIcNS_11char_traitsIcEENS0_IcEEEENS0_IS6_EEEEEC2B8ue170006Ev, symObjAddr: 0x1A5A4, symBinAddr: 0x10001C944, symSize: 0x84 }
  - { offsetInCU: 0x2005B, offset: 0x2005B, size: 0x8, addend: 0x0, symName: __ZNSt3__116__non_trivial_ifILb1ENS_9allocatorINS_6vectorINS_12basic_stringIcNS_11char_traitsIcEENS1_IcEEEENS1_IS7_EEEEEEEC2B8ue170006Ev, symObjAddr: 0x1A628, symBinAddr: 0x10001C9C8, symSize: 0x54 }
  - { offsetInCU: 0x20085, offset: 0x20085, size: 0x8, addend: 0x0, symName: __ZNSt3__16vectorINS0_INS0_I8PositionNS_9allocatorIS1_EEEENS2_IS4_EEEENS2_IS6_EEEC2B8ue170006Ev, symObjAddr: 0x1A67C, symBinAddr: 0x10001CA1C, symSize: 0x340 }
  - { offsetInCU: 0x200B0, offset: 0x200B0, size: 0x8, addend: 0x0, symName: __ZNSt3__117__compressed_pairIPNS_6vectorINS1_I8PositionNS_9allocatorIS2_EEEENS3_IS5_EEEENS3_IS7_EEEC1B8ue170006IDnNS_18__default_init_tagEEEOT_OT0_, symObjAddr: 0x1A9BC, symBinAddr: 0x10001CD5C, symSize: 0x88 }
  - { offsetInCU: 0x20108, offset: 0x20108, size: 0x8, addend: 0x0, symName: __ZNSt3__117__compressed_pairIPNS_6vectorINS1_I8PositionNS_9allocatorIS2_EEEENS3_IS5_EEEENS3_IS7_EEEC2B8ue170006IDnNS_18__default_init_tagEEEOT_OT0_, symObjAddr: 0x1AA44, symBinAddr: 0x10001CDE4, symSize: 0x140 }
  - { offsetInCU: 0x20160, offset: 0x20160, size: 0x8, addend: 0x0, symName: __ZNSt3__122__compressed_pair_elemIPNS_6vectorINS1_I8PositionNS_9allocatorIS2_EEEENS3_IS5_EEEELi0ELb0EEC2B8ue170006IDnvEEOT_, symObjAddr: 0x1AB84, symBinAddr: 0x10001CF24, symSize: 0xBC }
  - { offsetInCU: 0x201A2, offset: 0x201A2, size: 0x8, addend: 0x0, symName: __ZNSt3__122__compressed_pair_elemINS_9allocatorINS_6vectorINS2_I8PositionNS1_IS3_EEEENS1_IS5_EEEEEELi1ELb1EEC2B8ue170006ENS_18__default_init_tagE, symObjAddr: 0x1AC40, symBinAddr: 0x10001CFE0, symSize: 0x84 }
  - { offsetInCU: 0x201D6, offset: 0x201D6, size: 0x8, addend: 0x0, symName: __ZNSt3__19allocatorINS_6vectorINS1_I8PositionNS0_IS2_EEEENS0_IS4_EEEEEC2B8ue170006Ev, symObjAddr: 0x1ACC4, symBinAddr: 0x10001D064, symSize: 0x84 }
  - { offsetInCU: 0x20200, offset: 0x20200, size: 0x8, addend: 0x0, symName: __ZNSt3__116__non_trivial_ifILb1ENS_9allocatorINS_6vectorINS2_I8PositionNS1_IS3_EEEENS1_IS5_EEEEEEEC2B8ue170006Ev, symObjAddr: 0x1AD48, symBinAddr: 0x10001D0E8, symSize: 0x54 }
  - { offsetInCU: 0x2022A, offset: 0x2022A, size: 0x8, addend: 0x0, symName: __ZNSt3__16vectorI8PositionNS_9allocatorIS1_EEEC2B8ue170006Ev, symObjAddr: 0x1AD9C, symBinAddr: 0x10001D13C, symSize: 0x340 }
  - { offsetInCU: 0x20255, offset: 0x20255, size: 0x8, addend: 0x0, symName: __ZNSt3__117__compressed_pairIP8PositionNS_9allocatorIS1_EEEC1B8ue170006IDnNS_18__default_init_tagEEEOT_OT0_, symObjAddr: 0x1B0DC, symBinAddr: 0x10001D47C, symSize: 0x88 }
  - { offsetInCU: 0x202AD, offset: 0x202AD, size: 0x8, addend: 0x0, symName: __ZNSt3__117__compressed_pairIP8PositionNS_9allocatorIS1_EEEC2B8ue170006IDnNS_18__default_init_tagEEEOT_OT0_, symObjAddr: 0x1B164, symBinAddr: 0x10001D504, symSize: 0x140 }
  - { offsetInCU: 0x20305, offset: 0x20305, size: 0x8, addend: 0x0, symName: __ZNSt3__122__compressed_pair_elemIP8PositionLi0ELb0EEC2B8ue170006IDnvEEOT_, symObjAddr: 0x1B2A4, symBinAddr: 0x10001D644, symSize: 0xBC }
  - { offsetInCU: 0x20347, offset: 0x20347, size: 0x8, addend: 0x0, symName: __ZNSt3__15dequeI8PositionNS_9allocatorIS1_EEED2B8ue170006Ev, symObjAddr: 0x1B360, symBinAddr: 0x10001D700, symSize: 0x2A0 }
  - { offsetInCU: 0x2039D, offset: 0x2039D, size: 0x8, addend: 0x0, symName: __ZNKSt3__15dequeI8PositionNS_9allocatorIS1_EEE17__annotate_deleteB8ue170006Ev, symObjAddr: 0x1B600, symBinAddr: 0x10001D9A0, symSize: 0x22C }
  - { offsetInCU: 0x203E0, offset: 0x203E0, size: 0x8, addend: 0x0, symName: __ZNSt3__114__split_bufferIP8PositionNS_9allocatorIS2_EEE5beginB8ue170006Ev, symObjAddr: 0x1B82C, symBinAddr: 0x10001DBCC, symSize: 0xB0 }
  - { offsetInCU: 0x20406, offset: 0x20406, size: 0x8, addend: 0x0, symName: __ZNSt3__114__split_bufferIP8PositionNS_9allocatorIS2_EEE3endB8ue170006Ev, symObjAddr: 0x1B8DC, symBinAddr: 0x10001DC7C, symSize: 0xB0 }
  - { offsetInCU: 0x2042C, offset: 0x2042C, size: 0x8, addend: 0x0, symName: __ZNSt3__116allocator_traitsINS_9allocatorI8PositionEEE10deallocateB8ue170006ERS3_PS2_m, symObjAddr: 0x1B98C, symBinAddr: 0x10001DD2C, symSize: 0x34 }
  - { offsetInCU: 0x2046E, offset: 0x2046E, size: 0x8, addend: 0x0, symName: __ZNSt3__15dequeI8PositionNS_9allocatorIS1_EEE7__allocB8ue170006Ev, symObjAddr: 0x1B9C0, symBinAddr: 0x10001DD60, symSize: 0xE4 }
  - { offsetInCU: 0x20494, offset: 0x20494, size: 0x8, addend: 0x0, symName: __ZNSt3__114__split_bufferIP8PositionNS_9allocatorIS2_EEED1Ev, symObjAddr: 0x1BAA4, symBinAddr: 0x10001DE44, symSize: 0x78 }
  - { offsetInCU: 0x204C0, offset: 0x204C0, size: 0x8, addend: 0x0, symName: __ZNKSt3__15dequeI8PositionNS_9allocatorIS1_EEE22__annotate_whole_blockB8ue170006EmNS4_22__asan_annotation_typeE, symObjAddr: 0x1BB1C, symBinAddr: 0x10001DEBC, symSize: 0x3C4 }
  - { offsetInCU: 0x20531, offset: 0x20531, size: 0x8, addend: 0x0, symName: __ZNKSt3__15dequeI8PositionNS_9allocatorIS1_EEE23__annotate_poison_blockB8ue170006EPKvS6_, symObjAddr: 0x1BEE0, symBinAddr: 0x10001E280, symSize: 0x8C }
  - { offsetInCU: 0x20575, offset: 0x20575, size: 0x8, addend: 0x0, symName: __ZNSt3__19allocatorI8PositionE10deallocateB8ue170006EPS1_m, symObjAddr: 0x1BF6C, symBinAddr: 0x10001E30C, symSize: 0x7C }
  - { offsetInCU: 0x205B7, offset: 0x205B7, size: 0x8, addend: 0x0, symName: __ZNSt3__117__compressed_pairImNS_9allocatorI8PositionEEE6secondB8ue170006Ev, symObjAddr: 0x1C110, symBinAddr: 0x10001E4B0, symSize: 0x108 }
  - { offsetInCU: 0x205DD, offset: 0x205DD, size: 0x8, addend: 0x0, symName: __ZNSt3__122__compressed_pair_elemINS_9allocatorI8PositionEELi1ELb1EE5__getB8ue170006Ev, symObjAddr: 0x1C218, symBinAddr: 0x10001E5B8, symSize: 0x74 }
  - { offsetInCU: 0x20603, offset: 0x20603, size: 0x8, addend: 0x0, symName: __ZNSt3__114__split_bufferIP8PositionNS_9allocatorIS2_EEED2Ev, symObjAddr: 0x1C28C, symBinAddr: 0x10001E62C, symSize: 0x16C }
  - { offsetInCU: 0x2062F, offset: 0x2062F, size: 0x8, addend: 0x0, symName: __ZNSt3__114__split_bufferIP8PositionNS_9allocatorIS2_EEE5clearB8ue170006Ev, symObjAddr: 0x1C3F8, symBinAddr: 0x10001E798, symSize: 0xB4 }
  - { offsetInCU: 0x20655, offset: 0x20655, size: 0x8, addend: 0x0, symName: __ZNSt3__116allocator_traitsINS_9allocatorIP8PositionEEE10deallocateB8ue170006ERS4_PS3_m, symObjAddr: 0x1C4AC, symBinAddr: 0x10001E84C, symSize: 0x34 }
  - { offsetInCU: 0x20697, offset: 0x20697, size: 0x8, addend: 0x0, symName: __ZNSt3__114__split_bufferIP8PositionNS_9allocatorIS2_EEE7__allocB8ue170006Ev, symObjAddr: 0x1C4E0, symBinAddr: 0x10001E880, symSize: 0xE4 }
  - { offsetInCU: 0x206BD, offset: 0x206BD, size: 0x8, addend: 0x0, symName: __ZNKSt3__114__split_bufferIP8PositionNS_9allocatorIS2_EEE8capacityB8ue170006Ev, symObjAddr: 0x1C5C4, symBinAddr: 0x10001E964, symSize: 0x144 }
  - { offsetInCU: 0x206E3, offset: 0x206E3, size: 0x8, addend: 0x0, symName: __ZNSt3__114__split_bufferIP8PositionNS_9allocatorIS2_EEE17__destruct_at_endB8ue170006EPS2_, symObjAddr: 0x1C708, symBinAddr: 0x10001EAA8, symSize: 0x74 }
  - { offsetInCU: 0x20717, offset: 0x20717, size: 0x8, addend: 0x0, symName: __ZNSt3__114__split_bufferIP8PositionNS_9allocatorIS2_EEE17__destruct_at_endB8ue170006EPS2_NS_17integral_constantIbLb0EEE, symObjAddr: 0x1C77C, symBinAddr: 0x10001EB1C, symSize: 0x224 }
  - { offsetInCU: 0x20757, offset: 0x20757, size: 0x8, addend: 0x0, symName: __ZNSt3__116allocator_traitsINS_9allocatorIP8PositionEEE7destroyB8ue170006IS3_vEEvRS4_PT_, symObjAddr: 0x1C9A0, symBinAddr: 0x10001ED40, symSize: 0x2C }
  - { offsetInCU: 0x20794, offset: 0x20794, size: 0x8, addend: 0x0, symName: __ZNSt3__19allocatorIP8PositionE7destroyB8ue170006EPS2_, symObjAddr: 0x1C9E0, symBinAddr: 0x10001ED80, symSize: 0x4C }
  - { offsetInCU: 0x207C8, offset: 0x207C8, size: 0x8, addend: 0x0, symName: __ZNSt3__19allocatorIP8PositionE10deallocateB8ue170006EPS2_m, symObjAddr: 0x1CA2C, symBinAddr: 0x10001EDCC, symSize: 0x78 }
  - { offsetInCU: 0x2080A, offset: 0x2080A, size: 0x8, addend: 0x0, symName: __ZNSt3__117__compressed_pairIPP8PositionNS_9allocatorIS2_EEE6secondB8ue170006Ev, symObjAddr: 0x1CAA4, symBinAddr: 0x10001EE44, symSize: 0x108 }
  - { offsetInCU: 0x20830, offset: 0x20830, size: 0x8, addend: 0x0, symName: __ZNSt3__122__compressed_pair_elemINS_9allocatorIP8PositionEELi1ELb1EE5__getB8ue170006Ev, symObjAddr: 0x1CBAC, symBinAddr: 0x10001EF4C, symSize: 0x74 }
  - { offsetInCU: 0x20856, offset: 0x20856, size: 0x8, addend: 0x0, symName: __ZNKSt3__114__split_bufferIP8PositionNS_9allocatorIS2_EEE9__end_capB8ue170006Ev, symObjAddr: 0x1CC20, symBinAddr: 0x10001EFC0, symSize: 0x100 }
  - { offsetInCU: 0x2087C, offset: 0x2087C, size: 0x8, addend: 0x0, symName: __ZNKSt3__117__compressed_pairIPP8PositionNS_9allocatorIS2_EEE5firstB8ue170006Ev, symObjAddr: 0x1CD20, symBinAddr: 0x10001F0C0, symSize: 0x124 }
  - { offsetInCU: 0x208A2, offset: 0x208A2, size: 0x8, addend: 0x0, symName: __ZNKSt3__122__compressed_pair_elemIPP8PositionLi0ELb0EE5__getB8ue170006Ev, symObjAddr: 0x1CE44, symBinAddr: 0x10001F1E4, symSize: 0xAC }
  - { offsetInCU: 0x208C8, offset: 0x208C8, size: 0x8, addend: 0x0, symName: __ZNSt3__16vectorINS0_INS0_IbNS_9allocatorIbEEEENS1_IS3_EEEENS1_IS5_EEED2B8ue170006Ev, symObjAddr: 0x1CEF0, symBinAddr: 0x10001F290, symSize: 0x298 }
  - { offsetInCU: 0x208F3, offset: 0x208F3, size: 0x8, addend: 0x0, symName: __ZNSt3__16vectorINS0_INS0_IbNS_9allocatorIbEEEENS1_IS3_EEEENS1_IS5_EEE16__destroy_vectorC1B8ue170006ERS7_, symObjAddr: 0x1D188, symBinAddr: 0x10001F528, symSize: 0x80 }
  - { offsetInCU: 0x2092C, offset: 0x2092C, size: 0x8, addend: 0x0, symName: __ZNSt3__16vectorINS0_INS0_IbNS_9allocatorIbEEEENS1_IS3_EEEENS1_IS5_EEE16__destroy_vectorclB8ue170006Ev, symObjAddr: 0x1D208, symBinAddr: 0x10001F5A8, symSize: 0x43C }
  - { offsetInCU: 0x20952, offset: 0x20952, size: 0x8, addend: 0x0, symName: __ZNSt3__16vectorINS0_INS0_IbNS_9allocatorIbEEEENS1_IS3_EEEENS1_IS5_EEE16__destroy_vectorC2B8ue170006ERS7_, symObjAddr: 0x1D644, symBinAddr: 0x10001F9E4, symSize: 0x108 }
  - { offsetInCU: 0x2098B, offset: 0x2098B, size: 0x8, addend: 0x0, symName: __ZNSt3__16vectorINS0_INS0_IbNS_9allocatorIbEEEENS1_IS3_EEEENS1_IS5_EEE7__clearB8ue170006Ev, symObjAddr: 0x1D74C, symBinAddr: 0x10001FAEC, symSize: 0xB0 }
  - { offsetInCU: 0x209B1, offset: 0x209B1, size: 0x8, addend: 0x0, symName: __ZNKSt3__16vectorINS0_INS0_IbNS_9allocatorIbEEEENS1_IS3_EEEENS1_IS5_EEE17__annotate_deleteB8ue170006Ev, symObjAddr: 0x1D7FC, symBinAddr: 0x10001FB9C, symSize: 0x388 }
  - { offsetInCU: 0x209D7, offset: 0x209D7, size: 0x8, addend: 0x0, symName: __ZNSt3__116allocator_traitsINS_9allocatorINS_6vectorINS2_IbNS1_IbEEEENS1_IS4_EEEEEEE10deallocateB8ue170006ERS7_PS6_m, symObjAddr: 0x1DB84, symBinAddr: 0x10001FF24, symSize: 0x34 }
  - { offsetInCU: 0x20A19, offset: 0x20A19, size: 0x8, addend: 0x0, symName: __ZNSt3__16vectorINS0_INS0_IbNS_9allocatorIbEEEENS1_IS3_EEEENS1_IS5_EEE7__allocB8ue170006Ev, symObjAddr: 0x1DBB8, symBinAddr: 0x10001FF58, symSize: 0xE4 }
  - { offsetInCU: 0x20A3F, offset: 0x20A3F, size: 0x8, addend: 0x0, symName: __ZNKSt3__16vectorINS0_INS0_IbNS_9allocatorIbEEEENS1_IS3_EEEENS1_IS5_EEE8capacityB8ue170006Ev, symObjAddr: 0x1DC9C, symBinAddr: 0x10002003C, symSize: 0x144 }
  - { offsetInCU: 0x20A65, offset: 0x20A65, size: 0x8, addend: 0x0, symName: __ZNSt3__16vectorINS0_INS0_IbNS_9allocatorIbEEEENS1_IS3_EEEENS1_IS5_EEE22__base_destruct_at_endB8ue170006EPS5_, symObjAddr: 0x1DDE0, symBinAddr: 0x100020180, symSize: 0x1FC }
  - { offsetInCU: 0x20AA9, offset: 0x20AA9, size: 0x8, addend: 0x0, symName: __ZNSt3__116allocator_traitsINS_9allocatorINS_6vectorINS2_IbNS1_IbEEEENS1_IS4_EEEEEEE7destroyB8ue170006IS6_vEEvRS7_PT_, symObjAddr: 0x1DFDC, symBinAddr: 0x10002037C, symSize: 0x2C }
  - { offsetInCU: 0x20AE6, offset: 0x20AE6, size: 0x8, addend: 0x0, symName: __ZNSt3__19allocatorINS_6vectorINS1_IbNS0_IbEEEENS0_IS3_EEEEE7destroyB8ue170006EPS5_, symObjAddr: 0x1E01C, symBinAddr: 0x1000203BC, symSize: 0x9C }
  - { offsetInCU: 0x20B1A, offset: 0x20B1A, size: 0x8, addend: 0x0, symName: __ZNKSt3__16vectorINS0_INS0_IbNS_9allocatorIbEEEENS1_IS3_EEEENS1_IS5_EEE31__annotate_contiguous_containerEPKvS9_S9_S9_, symObjAddr: 0x1E0B8, symBinAddr: 0x100020458, symSize: 0x9C }
  - { offsetInCU: 0x20B7C, offset: 0x20B7C, size: 0x8, addend: 0x0, symName: __ZNKSt3__16vectorINS0_INS0_IbNS_9allocatorIbEEEENS1_IS3_EEEENS1_IS5_EEE4dataB8ue170006Ev, symObjAddr: 0x1E154, symBinAddr: 0x1000204F4, symSize: 0xB0 }
  - { offsetInCU: 0x20BA2, offset: 0x20BA2, size: 0x8, addend: 0x0, symName: __ZNKSt3__16vectorINS0_INS0_IbNS_9allocatorIbEEEENS1_IS3_EEEENS1_IS5_EEE4sizeB8ue170006Ev, symObjAddr: 0x1E204, symBinAddr: 0x1000205A4, symSize: 0xF8 }
  - { offsetInCU: 0x20BC8, offset: 0x20BC8, size: 0x8, addend: 0x0, symName: __ZNSt3__19allocatorINS_6vectorINS1_IbNS0_IbEEEENS0_IS3_EEEEE10deallocateB8ue170006EPS5_m, symObjAddr: 0x1E2FC, symBinAddr: 0x10002069C, symSize: 0x7C }
  - { offsetInCU: 0x20C0A, offset: 0x20C0A, size: 0x8, addend: 0x0, symName: __ZNSt3__117__compressed_pairIPNS_6vectorINS1_IbNS_9allocatorIbEEEENS2_IS4_EEEENS2_IS6_EEE6secondB8ue170006Ev, symObjAddr: 0x1E378, symBinAddr: 0x100020718, symSize: 0x108 }
  - { offsetInCU: 0x20C30, offset: 0x20C30, size: 0x8, addend: 0x0, symName: __ZNSt3__122__compressed_pair_elemINS_9allocatorINS_6vectorINS2_IbNS1_IbEEEENS1_IS4_EEEEEELi1ELb1EE5__getB8ue170006Ev, symObjAddr: 0x1E480, symBinAddr: 0x100020820, symSize: 0x74 }
  - { offsetInCU: 0x20C56, offset: 0x20C56, size: 0x8, addend: 0x0, symName: __ZNKSt3__16vectorINS0_INS0_IbNS_9allocatorIbEEEENS1_IS3_EEEENS1_IS5_EEE9__end_capB8ue170006Ev, symObjAddr: 0x1E4F4, symBinAddr: 0x100020894, symSize: 0x100 }
  - { offsetInCU: 0x20C7C, offset: 0x20C7C, size: 0x8, addend: 0x0, symName: __ZNKSt3__117__compressed_pairIPNS_6vectorINS1_IbNS_9allocatorIbEEEENS2_IS4_EEEENS2_IS6_EEE5firstB8ue170006Ev, symObjAddr: 0x1E5F4, symBinAddr: 0x100020994, symSize: 0x124 }
  - { offsetInCU: 0x20CA2, offset: 0x20CA2, size: 0x8, addend: 0x0, symName: __ZNKSt3__122__compressed_pair_elemIPNS_6vectorINS1_IbNS_9allocatorIbEEEENS2_IS4_EEEELi0ELb0EE5__getB8ue170006Ev, symObjAddr: 0x1E718, symBinAddr: 0x100020AB8, symSize: 0xAC }
  - { offsetInCU: 0x20CC8, offset: 0x20CC8, size: 0x8, addend: 0x0, symName: __ZNSt3__16vectorINS0_INS_12basic_stringIcNS_11char_traitsIcEENS_9allocatorIcEEEENS4_IS6_EEEENS4_IS8_EEED2B8ue170006Ev, symObjAddr: 0x1E7C4, symBinAddr: 0x100020B64, symSize: 0x298 }
  - { offsetInCU: 0x20CF3, offset: 0x20CF3, size: 0x8, addend: 0x0, symName: __ZNSt3__16vectorINS0_INS_12basic_stringIcNS_11char_traitsIcEENS_9allocatorIcEEEENS4_IS6_EEEENS4_IS8_EEE16__destroy_vectorC1B8ue170006ERSA_, symObjAddr: 0x1EA5C, symBinAddr: 0x100020DFC, symSize: 0x80 }
  - { offsetInCU: 0x20D2C, offset: 0x20D2C, size: 0x8, addend: 0x0, symName: __ZNSt3__16vectorINS0_INS_12basic_stringIcNS_11char_traitsIcEENS_9allocatorIcEEEENS4_IS6_EEEENS4_IS8_EEE16__destroy_vectorclB8ue170006Ev, symObjAddr: 0x1EADC, symBinAddr: 0x100020E7C, symSize: 0x43C }
  - { offsetInCU: 0x20D52, offset: 0x20D52, size: 0x8, addend: 0x0, symName: __ZNSt3__16vectorINS0_INS_12basic_stringIcNS_11char_traitsIcEENS_9allocatorIcEEEENS4_IS6_EEEENS4_IS8_EEE16__destroy_vectorC2B8ue170006ERSA_, symObjAddr: 0x1EF18, symBinAddr: 0x1000212B8, symSize: 0x108 }
  - { offsetInCU: 0x20D8B, offset: 0x20D8B, size: 0x8, addend: 0x0, symName: __ZNSt3__16vectorINS0_INS_12basic_stringIcNS_11char_traitsIcEENS_9allocatorIcEEEENS4_IS6_EEEENS4_IS8_EEE7__clearB8ue170006Ev, symObjAddr: 0x1F020, symBinAddr: 0x1000213C0, symSize: 0xB0 }
  - { offsetInCU: 0x20DB1, offset: 0x20DB1, size: 0x8, addend: 0x0, symName: __ZNKSt3__16vectorINS0_INS_12basic_stringIcNS_11char_traitsIcEENS_9allocatorIcEEEENS4_IS6_EEEENS4_IS8_EEE17__annotate_deleteB8ue170006Ev, symObjAddr: 0x1F0D0, symBinAddr: 0x100021470, symSize: 0x388 }
  - { offsetInCU: 0x20DD7, offset: 0x20DD7, size: 0x8, addend: 0x0, symName: __ZNSt3__116allocator_traitsINS_9allocatorINS_6vectorINS_12basic_stringIcNS_11char_traitsIcEENS1_IcEEEENS1_IS7_EEEEEEE10deallocateB8ue170006ERSA_PS9_m, symObjAddr: 0x1F458, symBinAddr: 0x1000217F8, symSize: 0x34 }
  - { offsetInCU: 0x20E19, offset: 0x20E19, size: 0x8, addend: 0x0, symName: __ZNSt3__16vectorINS0_INS_12basic_stringIcNS_11char_traitsIcEENS_9allocatorIcEEEENS4_IS6_EEEENS4_IS8_EEE7__allocB8ue170006Ev, symObjAddr: 0x1F48C, symBinAddr: 0x10002182C, symSize: 0xE4 }
  - { offsetInCU: 0x20E3F, offset: 0x20E3F, size: 0x8, addend: 0x0, symName: __ZNKSt3__16vectorINS0_INS_12basic_stringIcNS_11char_traitsIcEENS_9allocatorIcEEEENS4_IS6_EEEENS4_IS8_EEE8capacityB8ue170006Ev, symObjAddr: 0x1F570, symBinAddr: 0x100021910, symSize: 0x144 }
  - { offsetInCU: 0x20E65, offset: 0x20E65, size: 0x8, addend: 0x0, symName: __ZNSt3__16vectorINS0_INS_12basic_stringIcNS_11char_traitsIcEENS_9allocatorIcEEEENS4_IS6_EEEENS4_IS8_EEE22__base_destruct_at_endB8ue170006EPS8_, symObjAddr: 0x1F6B4, symBinAddr: 0x100021A54, symSize: 0x1FC }
  - { offsetInCU: 0x20EA9, offset: 0x20EA9, size: 0x8, addend: 0x0, symName: __ZNSt3__116allocator_traitsINS_9allocatorINS_6vectorINS_12basic_stringIcNS_11char_traitsIcEENS1_IcEEEENS1_IS7_EEEEEEE7destroyB8ue170006IS9_vEEvRSA_PT_, symObjAddr: 0x1F8B0, symBinAddr: 0x100021C50, symSize: 0x2C }
  - { offsetInCU: 0x20EE6, offset: 0x20EE6, size: 0x8, addend: 0x0, symName: __ZNSt3__19allocatorINS_6vectorINS_12basic_stringIcNS_11char_traitsIcEENS0_IcEEEENS0_IS6_EEEEE7destroyB8ue170006EPS8_, symObjAddr: 0x1F8F0, symBinAddr: 0x100021C90, symSize: 0x9C }
  - { offsetInCU: 0x20F1A, offset: 0x20F1A, size: 0x8, addend: 0x0, symName: __ZNKSt3__16vectorINS0_INS_12basic_stringIcNS_11char_traitsIcEENS_9allocatorIcEEEENS4_IS6_EEEENS4_IS8_EEE31__annotate_contiguous_containerEPKvSC_SC_SC_, symObjAddr: 0x1F98C, symBinAddr: 0x100021D2C, symSize: 0x9C }
  - { offsetInCU: 0x20F7C, offset: 0x20F7C, size: 0x8, addend: 0x0, symName: __ZNKSt3__16vectorINS0_INS_12basic_stringIcNS_11char_traitsIcEENS_9allocatorIcEEEENS4_IS6_EEEENS4_IS8_EEE4dataB8ue170006Ev, symObjAddr: 0x1FA28, symBinAddr: 0x100021DC8, symSize: 0xB0 }
  - { offsetInCU: 0x20FA2, offset: 0x20FA2, size: 0x8, addend: 0x0, symName: __ZNKSt3__16vectorINS0_INS_12basic_stringIcNS_11char_traitsIcEENS_9allocatorIcEEEENS4_IS6_EEEENS4_IS8_EEE4sizeB8ue170006Ev, symObjAddr: 0x1FAD8, symBinAddr: 0x100021E78, symSize: 0xF8 }
  - { offsetInCU: 0x20FC8, offset: 0x20FC8, size: 0x8, addend: 0x0, symName: __ZNSt3__19allocatorINS_6vectorINS_12basic_stringIcNS_11char_traitsIcEENS0_IcEEEENS0_IS6_EEEEE10deallocateB8ue170006EPS8_m, symObjAddr: 0x1FBD0, symBinAddr: 0x100021F70, symSize: 0x7C }
  - { offsetInCU: 0x2100A, offset: 0x2100A, size: 0x8, addend: 0x0, symName: __ZNSt3__117__compressed_pairIPNS_6vectorINS_12basic_stringIcNS_11char_traitsIcEENS_9allocatorIcEEEENS5_IS7_EEEENS5_IS9_EEE6secondB8ue170006Ev, symObjAddr: 0x1FC4C, symBinAddr: 0x100021FEC, symSize: 0x108 }
  - { offsetInCU: 0x21030, offset: 0x21030, size: 0x8, addend: 0x0, symName: __ZNSt3__122__compressed_pair_elemINS_9allocatorINS_6vectorINS_12basic_stringIcNS_11char_traitsIcEENS1_IcEEEENS1_IS7_EEEEEELi1ELb1EE5__getB8ue170006Ev, symObjAddr: 0x1FD54, symBinAddr: 0x1000220F4, symSize: 0x74 }
  - { offsetInCU: 0x21056, offset: 0x21056, size: 0x8, addend: 0x0, symName: __ZNKSt3__16vectorINS0_INS_12basic_stringIcNS_11char_traitsIcEENS_9allocatorIcEEEENS4_IS6_EEEENS4_IS8_EEE9__end_capB8ue170006Ev, symObjAddr: 0x1FDC8, symBinAddr: 0x100022168, symSize: 0x100 }
  - { offsetInCU: 0x2107C, offset: 0x2107C, size: 0x8, addend: 0x0, symName: __ZNKSt3__117__compressed_pairIPNS_6vectorINS_12basic_stringIcNS_11char_traitsIcEENS_9allocatorIcEEEENS5_IS7_EEEENS5_IS9_EEE5firstB8ue170006Ev, symObjAddr: 0x1FEC8, symBinAddr: 0x100022268, symSize: 0x124 }
  - { offsetInCU: 0x210A2, offset: 0x210A2, size: 0x8, addend: 0x0, symName: __ZNKSt3__122__compressed_pair_elemIPNS_6vectorINS_12basic_stringIcNS_11char_traitsIcEENS_9allocatorIcEEEENS5_IS7_EEEELi0ELb0EE5__getB8ue170006Ev, symObjAddr: 0x1FFEC, symBinAddr: 0x10002238C, symSize: 0xAC }
  - { offsetInCU: 0x210C8, offset: 0x210C8, size: 0x8, addend: 0x0, symName: __ZNSt3__16vectorINS0_INS0_I8PositionNS_9allocatorIS1_EEEENS2_IS4_EEEENS2_IS6_EEED2B8ue170006Ev, symObjAddr: 0x20098, symBinAddr: 0x100022438, symSize: 0x298 }
  - { offsetInCU: 0x210F3, offset: 0x210F3, size: 0x8, addend: 0x0, symName: __ZNSt3__16vectorINS0_INS0_I8PositionNS_9allocatorIS1_EEEENS2_IS4_EEEENS2_IS6_EEE16__destroy_vectorC1B8ue170006ERS8_, symObjAddr: 0x20330, symBinAddr: 0x1000226D0, symSize: 0x80 }
  - { offsetInCU: 0x2112C, offset: 0x2112C, size: 0x8, addend: 0x0, symName: __ZNSt3__16vectorINS0_INS0_I8PositionNS_9allocatorIS1_EEEENS2_IS4_EEEENS2_IS6_EEE16__destroy_vectorclB8ue170006Ev, symObjAddr: 0x203B0, symBinAddr: 0x100022750, symSize: 0x43C }
  - { offsetInCU: 0x21152, offset: 0x21152, size: 0x8, addend: 0x0, symName: __ZNSt3__16vectorINS0_INS0_I8PositionNS_9allocatorIS1_EEEENS2_IS4_EEEENS2_IS6_EEE16__destroy_vectorC2B8ue170006ERS8_, symObjAddr: 0x207EC, symBinAddr: 0x100022B8C, symSize: 0x108 }
  - { offsetInCU: 0x2118B, offset: 0x2118B, size: 0x8, addend: 0x0, symName: __ZNSt3__16vectorINS0_INS0_I8PositionNS_9allocatorIS1_EEEENS2_IS4_EEEENS2_IS6_EEE7__clearB8ue170006Ev, symObjAddr: 0x208F4, symBinAddr: 0x100022C94, symSize: 0xB0 }
  - { offsetInCU: 0x211B1, offset: 0x211B1, size: 0x8, addend: 0x0, symName: __ZNKSt3__16vectorINS0_INS0_I8PositionNS_9allocatorIS1_EEEENS2_IS4_EEEENS2_IS6_EEE17__annotate_deleteB8ue170006Ev, symObjAddr: 0x209A4, symBinAddr: 0x100022D44, symSize: 0x388 }
  - { offsetInCU: 0x211D7, offset: 0x211D7, size: 0x8, addend: 0x0, symName: __ZNSt3__116allocator_traitsINS_9allocatorINS_6vectorINS2_I8PositionNS1_IS3_EEEENS1_IS5_EEEEEEE10deallocateB8ue170006ERS8_PS7_m, symObjAddr: 0x20D2C, symBinAddr: 0x1000230CC, symSize: 0x34 }
  - { offsetInCU: 0x21219, offset: 0x21219, size: 0x8, addend: 0x0, symName: __ZNSt3__16vectorINS0_INS0_I8PositionNS_9allocatorIS1_EEEENS2_IS4_EEEENS2_IS6_EEE7__allocB8ue170006Ev, symObjAddr: 0x20D60, symBinAddr: 0x100023100, symSize: 0xE4 }
  - { offsetInCU: 0x2123F, offset: 0x2123F, size: 0x8, addend: 0x0, symName: __ZNKSt3__16vectorINS0_INS0_I8PositionNS_9allocatorIS1_EEEENS2_IS4_EEEENS2_IS6_EEE8capacityB8ue170006Ev, symObjAddr: 0x20E44, symBinAddr: 0x1000231E4, symSize: 0x144 }
  - { offsetInCU: 0x21265, offset: 0x21265, size: 0x8, addend: 0x0, symName: __ZNSt3__16vectorINS0_INS0_I8PositionNS_9allocatorIS1_EEEENS2_IS4_EEEENS2_IS6_EEE22__base_destruct_at_endB8ue170006EPS6_, symObjAddr: 0x20F88, symBinAddr: 0x100023328, symSize: 0x1FC }
  - { offsetInCU: 0x212A9, offset: 0x212A9, size: 0x8, addend: 0x0, symName: __ZNSt3__116allocator_traitsINS_9allocatorINS_6vectorINS2_I8PositionNS1_IS3_EEEENS1_IS5_EEEEEEE7destroyB8ue170006IS7_vEEvRS8_PT_, symObjAddr: 0x21184, symBinAddr: 0x100023524, symSize: 0x2C }
  - { offsetInCU: 0x212E6, offset: 0x212E6, size: 0x8, addend: 0x0, symName: __ZNSt3__19allocatorINS_6vectorINS1_I8PositionNS0_IS2_EEEENS0_IS4_EEEEE7destroyB8ue170006EPS6_, symObjAddr: 0x211C4, symBinAddr: 0x100023564, symSize: 0x9C }
  - { offsetInCU: 0x2131A, offset: 0x2131A, size: 0x8, addend: 0x0, symName: __ZNKSt3__16vectorINS0_INS0_I8PositionNS_9allocatorIS1_EEEENS2_IS4_EEEENS2_IS6_EEE31__annotate_contiguous_containerEPKvSA_SA_SA_, symObjAddr: 0x21260, symBinAddr: 0x100023600, symSize: 0x9C }
  - { offsetInCU: 0x2137C, offset: 0x2137C, size: 0x8, addend: 0x0, symName: __ZNKSt3__16vectorINS0_INS0_I8PositionNS_9allocatorIS1_EEEENS2_IS4_EEEENS2_IS6_EEE4dataB8ue170006Ev, symObjAddr: 0x212FC, symBinAddr: 0x10002369C, symSize: 0xB0 }
  - { offsetInCU: 0x213A2, offset: 0x213A2, size: 0x8, addend: 0x0, symName: __ZNKSt3__16vectorINS0_INS0_I8PositionNS_9allocatorIS1_EEEENS2_IS4_EEEENS2_IS6_EEE4sizeB8ue170006Ev, symObjAddr: 0x213AC, symBinAddr: 0x10002374C, symSize: 0xF8 }
  - { offsetInCU: 0x213C8, offset: 0x213C8, size: 0x8, addend: 0x0, symName: __ZNSt3__19allocatorINS_6vectorINS1_I8PositionNS0_IS2_EEEENS0_IS4_EEEEE10deallocateB8ue170006EPS6_m, symObjAddr: 0x214A4, symBinAddr: 0x100023844, symSize: 0x7C }
  - { offsetInCU: 0x2140A, offset: 0x2140A, size: 0x8, addend: 0x0, symName: __ZNSt3__117__compressed_pairIPNS_6vectorINS1_I8PositionNS_9allocatorIS2_EEEENS3_IS5_EEEENS3_IS7_EEE6secondB8ue170006Ev, symObjAddr: 0x21520, symBinAddr: 0x1000238C0, symSize: 0x108 }
  - { offsetInCU: 0x21430, offset: 0x21430, size: 0x8, addend: 0x0, symName: __ZNSt3__122__compressed_pair_elemINS_9allocatorINS_6vectorINS2_I8PositionNS1_IS3_EEEENS1_IS5_EEEEEELi1ELb1EE5__getB8ue170006Ev, symObjAddr: 0x21628, symBinAddr: 0x1000239C8, symSize: 0x74 }
  - { offsetInCU: 0x21456, offset: 0x21456, size: 0x8, addend: 0x0, symName: __ZNKSt3__16vectorINS0_INS0_I8PositionNS_9allocatorIS1_EEEENS2_IS4_EEEENS2_IS6_EEE9__end_capB8ue170006Ev, symObjAddr: 0x2169C, symBinAddr: 0x100023A3C, symSize: 0x100 }
  - { offsetInCU: 0x2147C, offset: 0x2147C, size: 0x8, addend: 0x0, symName: __ZNKSt3__117__compressed_pairIPNS_6vectorINS1_I8PositionNS_9allocatorIS2_EEEENS3_IS5_EEEENS3_IS7_EEE5firstB8ue170006Ev, symObjAddr: 0x2179C, symBinAddr: 0x100023B3C, symSize: 0x124 }
  - { offsetInCU: 0x214A2, offset: 0x214A2, size: 0x8, addend: 0x0, symName: __ZNKSt3__122__compressed_pair_elemIPNS_6vectorINS1_I8PositionNS_9allocatorIS2_EEEENS3_IS5_EEEELi0ELb0EE5__getB8ue170006Ev, symObjAddr: 0x218C0, symBinAddr: 0x100023C60, symSize: 0xAC }
  - { offsetInCU: 0x214C8, offset: 0x214C8, size: 0x8, addend: 0x0, symName: __ZNSt3__16vectorI8PositionNS_9allocatorIS1_EEED2B8ue170006Ev, symObjAddr: 0x2196C, symBinAddr: 0x100023D0C, symSize: 0x298 }
  - { offsetInCU: 0x214F3, offset: 0x214F3, size: 0x8, addend: 0x0, symName: __ZNSt3__16vectorI8PositionNS_9allocatorIS1_EEE16__destroy_vectorC1B8ue170006ERS4_, symObjAddr: 0x21C04, symBinAddr: 0x100023FA4, symSize: 0x80 }
  - { offsetInCU: 0x2152C, offset: 0x2152C, size: 0x8, addend: 0x0, symName: __ZNSt3__16vectorI8PositionNS_9allocatorIS1_EEE16__destroy_vectorclB8ue170006Ev, symObjAddr: 0x21C84, symBinAddr: 0x100024024, symSize: 0x43C }
  - { offsetInCU: 0x21552, offset: 0x21552, size: 0x8, addend: 0x0, symName: __ZNSt3__16vectorI8PositionNS_9allocatorIS1_EEE16__destroy_vectorC2B8ue170006ERS4_, symObjAddr: 0x220C0, symBinAddr: 0x100024460, symSize: 0x108 }
  - { offsetInCU: 0x2158B, offset: 0x2158B, size: 0x8, addend: 0x0, symName: __ZNSt3__16vectorI8PositionNS_9allocatorIS1_EEE7__clearB8ue170006Ev, symObjAddr: 0x221C8, symBinAddr: 0x100024568, symSize: 0xB0 }
  - { offsetInCU: 0x215B1, offset: 0x215B1, size: 0x8, addend: 0x0, symName: __ZNKSt3__16vectorI8PositionNS_9allocatorIS1_EEE17__annotate_deleteB8ue170006Ev, symObjAddr: 0x22278, symBinAddr: 0x100024618, symSize: 0x388 }
  - { offsetInCU: 0x215D7, offset: 0x215D7, size: 0x8, addend: 0x0, symName: __ZNSt3__16vectorI8PositionNS_9allocatorIS1_EEE7__allocB8ue170006Ev, symObjAddr: 0x22600, symBinAddr: 0x1000249A0, symSize: 0xE4 }
  - { offsetInCU: 0x215FD, offset: 0x215FD, size: 0x8, addend: 0x0, symName: __ZNKSt3__16vectorI8PositionNS_9allocatorIS1_EEE8capacityB8ue170006Ev, symObjAddr: 0x226E4, symBinAddr: 0x100024A84, symSize: 0x144 }
  - { offsetInCU: 0x21623, offset: 0x21623, size: 0x8, addend: 0x0, symName: __ZNSt3__16vectorI8PositionNS_9allocatorIS1_EEE22__base_destruct_at_endB8ue170006EPS1_, symObjAddr: 0x22828, symBinAddr: 0x100024BC8, symSize: 0x1FC }
  - { offsetInCU: 0x21667, offset: 0x21667, size: 0x8, addend: 0x0, symName: __ZNSt3__116allocator_traitsINS_9allocatorI8PositionEEE7destroyB8ue170006IS2_vEEvRS3_PT_, symObjAddr: 0x22A24, symBinAddr: 0x100024DC4, symSize: 0x2C }
  - { offsetInCU: 0x216A4, offset: 0x216A4, size: 0x8, addend: 0x0, symName: __ZNSt3__19allocatorI8PositionE7destroyB8ue170006EPS1_, symObjAddr: 0x22A50, symBinAddr: 0x100024DF0, symSize: 0x4C }
  - { offsetInCU: 0x216D8, offset: 0x216D8, size: 0x8, addend: 0x0, symName: __ZNKSt3__16vectorI8PositionNS_9allocatorIS1_EEE31__annotate_contiguous_containerEPKvS6_S6_S6_, symObjAddr: 0x22A9C, symBinAddr: 0x100024E3C, symSize: 0x9C }
  - { offsetInCU: 0x2173A, offset: 0x2173A, size: 0x8, addend: 0x0, symName: __ZNKSt3__16vectorI8PositionNS_9allocatorIS1_EEE4dataB8ue170006Ev, symObjAddr: 0x22B38, symBinAddr: 0x100024ED8, symSize: 0xB0 }
  - { offsetInCU: 0x21760, offset: 0x21760, size: 0x8, addend: 0x0, symName: __ZNKSt3__16vectorI8PositionNS_9allocatorIS1_EEE4sizeB8ue170006Ev, symObjAddr: 0x22BE8, symBinAddr: 0x100024F88, symSize: 0xF8 }
  - { offsetInCU: 0x21786, offset: 0x21786, size: 0x8, addend: 0x0, symName: __ZNSt3__117__compressed_pairIP8PositionNS_9allocatorIS1_EEE6secondB8ue170006Ev, symObjAddr: 0x22CE0, symBinAddr: 0x100025080, symSize: 0x108 }
  - { offsetInCU: 0x217AC, offset: 0x217AC, size: 0x8, addend: 0x0, symName: __ZNKSt3__16vectorI8PositionNS_9allocatorIS1_EEE9__end_capB8ue170006Ev, symObjAddr: 0x22DE8, symBinAddr: 0x100025188, symSize: 0x100 }
  - { offsetInCU: 0x217D2, offset: 0x217D2, size: 0x8, addend: 0x0, symName: __ZNKSt3__117__compressed_pairIP8PositionNS_9allocatorIS1_EEE5firstB8ue170006Ev, symObjAddr: 0x22EE8, symBinAddr: 0x100025288, symSize: 0x124 }
  - { offsetInCU: 0x217F8, offset: 0x217F8, size: 0x8, addend: 0x0, symName: __ZNKSt3__122__compressed_pair_elemIP8PositionLi0ELb0EE5__getB8ue170006Ev, symObjAddr: 0x2300C, symBinAddr: 0x1000253AC, symSize: 0xAC }
  - { offsetInCU: 0x2181E, offset: 0x2181E, size: 0x8, addend: 0x0, symName: __ZNSt3__112basic_stringIcNS_11char_traitsIcEENS_9allocatorIcEEEC2B8ue170006Ev, symObjAddr: 0x230B8, symBinAddr: 0x100025458, symSize: 0x274 }
  - { offsetInCU: 0x21849, offset: 0x21849, size: 0x8, addend: 0x0, symName: __ZNSt3__117__compressed_pairINS_12basic_stringIcNS_11char_traitsIcEENS_9allocatorIcEEE5__repES5_EC1B8ue170006INS_18__default_init_tagESA_EEOT_OT0_, symObjAddr: 0x2332C, symBinAddr: 0x1000256CC, symSize: 0x88 }
  - { offsetInCU: 0x218A1, offset: 0x218A1, size: 0x8, addend: 0x0, symName: __ZNSt3__112basic_stringIcNS_11char_traitsIcEENS_9allocatorIcEEE14__default_initB8ue170006Ev, symObjAddr: 0x233B4, symBinAddr: 0x100025754, symSize: 0x2B4 }
  - { offsetInCU: 0x218C8, offset: 0x218C8, size: 0x8, addend: 0x0, symName: __ZNSt3__117__compressed_pairINS_12basic_stringIcNS_11char_traitsIcEENS_9allocatorIcEEE5__repES5_EC2B8ue170006INS_18__default_init_tagESA_EEOT_OT0_, symObjAddr: 0x23668, symBinAddr: 0x100025A08, symSize: 0xF4 }
  - { offsetInCU: 0x21920, offset: 0x21920, size: 0x8, addend: 0x0, symName: __ZNSt3__122__compressed_pair_elemINS_12basic_stringIcNS_11char_traitsIcEENS_9allocatorIcEEE5__repELi0ELb0EEC2B8ue170006ENS_18__default_init_tagE, symObjAddr: 0x2375C, symBinAddr: 0x100025AFC, symSize: 0x6C }
  - { offsetInCU: 0x21954, offset: 0x21954, size: 0x8, addend: 0x0, symName: __ZNSt3__122__compressed_pair_elemINS_9allocatorIcEELi1ELb1EEC2B8ue170006ENS_18__default_init_tagE, symObjAddr: 0x237C8, symBinAddr: 0x100025B68, symSize: 0x84 }
  - { offsetInCU: 0x21988, offset: 0x21988, size: 0x8, addend: 0x0, symName: __ZNSt3__19allocatorIcEC2B8ue170006Ev, symObjAddr: 0x2384C, symBinAddr: 0x100025BEC, symSize: 0x84 }
  - { offsetInCU: 0x219B2, offset: 0x219B2, size: 0x8, addend: 0x0, symName: __ZNSt3__116__non_trivial_ifILb1ENS_9allocatorIcEEEC2B8ue170006Ev, symObjAddr: 0x238D0, symBinAddr: 0x100025C70, symSize: 0x54 }
  - { offsetInCU: 0x219DC, offset: 0x219DC, size: 0x8, addend: 0x0, symName: __ZNSt3__117__compressed_pairINS_12basic_stringIcNS_11char_traitsIcEENS_9allocatorIcEEE5__repES5_E5firstB8ue170006Ev, symObjAddr: 0x23924, symBinAddr: 0x100025CC4, symSize: 0x124 }
  - { offsetInCU: 0x21A02, offset: 0x21A02, size: 0x8, addend: 0x0, symName: __ZNSt3__122__compressed_pair_elemINS_12basic_stringIcNS_11char_traitsIcEENS_9allocatorIcEEE5__repELi0ELb0EE5__getB8ue170006Ev, symObjAddr: 0x23A48, symBinAddr: 0x100025DE8, symSize: 0xAC }
  - { offsetInCU: 0x21A28, offset: 0x21A28, size: 0x8, addend: 0x0, symName: __ZNKSt3__19basic_iosIcNS_11char_traitsIcEEE5widenB8ue170006Ec, symObjAddr: 0x249A0, symBinAddr: 0x100026D40, symSize: 0x47C }
  - { offsetInCU: 0x21A7F, offset: 0x21A7F, size: 0x8, addend: 0x0, symName: __ZNKSt3__113basic_istreamIcNS_11char_traitsIcEEE6sentrycvbB8ue170006Ev, symObjAddr: 0x24E1C, symBinAddr: 0x1000271BC, symSize: 0xE8 }
  - { offsetInCU: 0x21AA5, offset: 0x21AA5, size: 0x8, addend: 0x0, symName: __ZNSt3__112basic_stringIcNS_11char_traitsIcEENS_9allocatorIcEEE5clearB8ue170006Ev, symObjAddr: 0x24F04, symBinAddr: 0x1000272A4, symSize: 0x398 }
  - { offsetInCU: 0x21ACE, offset: 0x21ACE, size: 0x8, addend: 0x0, symName: __ZNKSt3__19basic_iosIcNS_11char_traitsIcEEE5rdbufB8ue170006Ev, symObjAddr: 0x2529C, symBinAddr: 0x10002763C, symSize: 0x120 }
  - { offsetInCU: 0x21AF6, offset: 0x21AF6, size: 0x8, addend: 0x0, symName: __ZNSt3__115basic_streambufIcNS_11char_traitsIcEEE6sbumpcB8ue170006Ev, symObjAddr: 0x253BC, symBinAddr: 0x10002775C, symSize: 0x4D8 }
  - { offsetInCU: 0x21B1C, offset: 0x21B1C, size: 0x8, addend: 0x0, symName: __ZNSt3__111char_traitsIcE11eq_int_typeB8ue170006Eii, symObjAddr: 0x25894, symBinAddr: 0x100027C34, symSize: 0x28 }
  - { offsetInCU: 0x21B4F, offset: 0x21B4F, size: 0x8, addend: 0x0, symName: __ZNSt3__111char_traitsIcE3eofB8ue170006Ev, symObjAddr: 0x258BC, symBinAddr: 0x100027C5C, symSize: 0x8 }
  - { offsetInCU: 0x21B63, offset: 0x21B63, size: 0x8, addend: 0x0, symName: __ZNSt3__111char_traitsIcE12to_char_typeB8ue170006Ei, symObjAddr: 0x258C4, symBinAddr: 0x100027C64, symSize: 0x18 }
  - { offsetInCU: 0x21B86, offset: 0x21B86, size: 0x8, addend: 0x0, symName: __ZNSt3__111char_traitsIcE2eqEcc, symObjAddr: 0x258DC, symBinAddr: 0x100027C7C, symSize: 0x28 }
  - { offsetInCU: 0x21BB7, offset: 0x21BB7, size: 0x8, addend: 0x0, symName: __ZNKSt3__112basic_stringIcNS_11char_traitsIcEENS_9allocatorIcEEE8max_sizeB8ue170006Ev, symObjAddr: 0x25904, symBinAddr: 0x100027CA4, symSize: 0x1B8 }
  - { offsetInCU: 0x21C09, offset: 0x21C09, size: 0x8, addend: 0x0, symName: __ZNSt3__18ios_base18__setstate_nothrowB8ue170006Ej, symObjAddr: 0x25ABC, symBinAddr: 0x100027E5C, symSize: 0x320 }
  - { offsetInCU: 0x21C3E, offset: 0x21C3E, size: 0x8, addend: 0x0, symName: __ZNKSt3__19basic_iosIcNS_11char_traitsIcEEE10exceptionsB8ue170006Ev, symObjAddr: 0x25DDC, symBinAddr: 0x10002817C, symSize: 0x120 }
  - { offsetInCU: 0x21C64, offset: 0x21C64, size: 0x8, addend: 0x0, symName: __ZNSt3__19basic_iosIcNS_11char_traitsIcEEE8setstateB8ue170006Ej, symObjAddr: 0x25EFC, symBinAddr: 0x10002829C, symSize: 0x128 }
  - { offsetInCU: 0x21C99, offset: 0x21C99, size: 0x8, addend: 0x0, symName: __ZNKSt3__112basic_stringIcNS_11char_traitsIcEENS_9allocatorIcEEE9__is_longB8ue170006Ev, symObjAddr: 0x26024, symBinAddr: 0x1000283C4, symSize: 0x1FC }
  - { offsetInCU: 0x21CBF, offset: 0x21CBF, size: 0x8, addend: 0x0, symName: __ZNSt3__111char_traitsIcE6assignB8ue170006ERcRKc, symObjAddr: 0x26220, symBinAddr: 0x1000285C0, symSize: 0xF4 }
  - { offsetInCU: 0x21CF0, offset: 0x21CF0, size: 0x8, addend: 0x0, symName: __ZNSt3__112basic_stringIcNS_11char_traitsIcEENS_9allocatorIcEEE18__get_long_pointerB8ue170006Ev, symObjAddr: 0x26314, symBinAddr: 0x1000286B4, symSize: 0x208 }
  - { offsetInCU: 0x21D16, offset: 0x21D16, size: 0x8, addend: 0x0, symName: __ZNSt3__112basic_stringIcNS_11char_traitsIcEENS_9allocatorIcEEE15__set_long_sizeB8ue170006Em, symObjAddr: 0x2651C, symBinAddr: 0x1000288BC, symSize: 0x220 }
  - { offsetInCU: 0x21D4B, offset: 0x21D4B, size: 0x8, addend: 0x0, symName: __ZNSt3__112basic_stringIcNS_11char_traitsIcEENS_9allocatorIcEEE19__get_short_pointerB8ue170006Ev, symObjAddr: 0x2673C, symBinAddr: 0x100028ADC, symSize: 0x1CC }
  - { offsetInCU: 0x21D71, offset: 0x21D71, size: 0x8, addend: 0x0, symName: __ZNSt3__112basic_stringIcNS_11char_traitsIcEENS_9allocatorIcEEE16__set_short_sizeB8ue170006Em, symObjAddr: 0x26908, symBinAddr: 0x100028CA8, symSize: 0x394 }
  - { offsetInCU: 0x21DA6, offset: 0x21DA6, size: 0x8, addend: 0x0, symName: __ZNKSt3__117__compressed_pairINS_12basic_stringIcNS_11char_traitsIcEENS_9allocatorIcEEE5__repES5_E5firstB8ue170006Ev, symObjAddr: 0x26C9C, symBinAddr: 0x10002903C, symSize: 0x124 }
  - { offsetInCU: 0x21DCC, offset: 0x21DCC, size: 0x8, addend: 0x0, symName: __ZNKSt3__122__compressed_pair_elemINS_12basic_stringIcNS_11char_traitsIcEENS_9allocatorIcEEE5__repELi0ELb0EE5__getB8ue170006Ev, symObjAddr: 0x26DC0, symBinAddr: 0x100029160, symSize: 0xAC }
  - { offsetInCU: 0x21DF2, offset: 0x21DF2, size: 0x8, addend: 0x0, symName: __ZNSt3__114pointer_traitsIPcE10pointer_toB8ue170006ERc, symObjAddr: 0x26E6C, symBinAddr: 0x10002920C, symSize: 0x14 }
  - { offsetInCU: 0x21E15, offset: 0x21E15, size: 0x8, addend: 0x0, symName: __ZNKSt3__18ios_base5rdbufB8ue170006Ev, symObjAddr: 0x26E80, symBinAddr: 0x100029220, symSize: 0x138 }
  - { offsetInCU: 0x21E3B, offset: 0x21E3B, size: 0x8, addend: 0x0, symName: __ZNSt3__111char_traitsIcE11to_int_typeB8ue170006Ec, symObjAddr: 0x26FB8, symBinAddr: 0x100029358, symSize: 0x14 }
  - { offsetInCU: 0x21E69, offset: 0x21E69, size: 0x8, addend: 0x0, symName: __ZNSt3__116allocator_traitsINS_9allocatorIcEEE8max_sizeB8ue170006IS2_vEEmRKS2_, symObjAddr: 0x26FCC, symBinAddr: 0x10002936C, symSize: 0x24 }
  - { offsetInCU: 0x21E97, offset: 0x21E97, size: 0x8, addend: 0x0, symName: __ZNKSt3__112basic_stringIcNS_11char_traitsIcEENS_9allocatorIcEEE7__allocB8ue170006Ev, symObjAddr: 0x26FF0, symBinAddr: 0x100029390, symSize: 0xDC }
  - { offsetInCU: 0x21EBD, offset: 0x21EBD, size: 0x8, addend: 0x0, symName: __ZNSt3__114numeric_limitsImE3maxB8ue170006Ev, symObjAddr: 0x270CC, symBinAddr: 0x10002946C, symSize: 0x14 }
  - { offsetInCU: 0x21ED1, offset: 0x21ED1, size: 0x8, addend: 0x0, symName: __ZNKSt3__19allocatorIcE8max_sizeB8ue170006Ev, symObjAddr: 0x270E0, symBinAddr: 0x100029480, symSize: 0x4C }
  - { offsetInCU: 0x21EF7, offset: 0x21EF7, size: 0x8, addend: 0x0, symName: __ZNKSt3__117__compressed_pairINS_12basic_stringIcNS_11char_traitsIcEENS_9allocatorIcEEE5__repES5_E6secondB8ue170006Ev, symObjAddr: 0x2712C, symBinAddr: 0x1000294CC, symSize: 0x108 }
  - { offsetInCU: 0x21F1D, offset: 0x21F1D, size: 0x8, addend: 0x0, symName: __ZNKSt3__122__compressed_pair_elemINS_9allocatorIcEELi1ELb1EE5__getB8ue170006Ev, symObjAddr: 0x27234, symBinAddr: 0x1000295D4, symSize: 0x74 }
  - { offsetInCU: 0x21F43, offset: 0x21F43, size: 0x8, addend: 0x0, symName: __ZNSt3__123__libcpp_numeric_limitsImLb1EE3maxB8ue170006Ev, symObjAddr: 0x272A8, symBinAddr: 0x100029648, symSize: 0x8 }
  - { offsetInCU: 0x21F57, offset: 0x21F57, size: 0x8, addend: 0x0, symName: __ZNKSt3__18ios_base10exceptionsB8ue170006Ev, symObjAddr: 0x272B0, symBinAddr: 0x100029650, symSize: 0x160 }
  - { offsetInCU: 0x21F7F, offset: 0x21F7F, size: 0x8, addend: 0x0, symName: __ZNSt3__18ios_base8setstateB8ue170006Ej, symObjAddr: 0x27410, symBinAddr: 0x1000297B0, symSize: 0x1E0 }
  - { offsetInCU: 0x21FE8, offset: 0x21FE8, size: 0x8, addend: 0x0, symName: __ZNKSt3__15ctypeIcE5widenB8ue170006Ec, symObjAddr: 0x27778, symBinAddr: 0x100029B18, symSize: 0x18C }
  - { offsetInCU: 0x2201D, offset: 0x2201D, size: 0x8, addend: 0x0, symName: __ZNSt3__111char_traitsIcE6lengthB8ue170006EPKc, symObjAddr: 0x28940, symBinAddr: 0x10002ACE0, symSize: 0x40 }
  - { offsetInCU: 0x22059, offset: 0x22059, size: 0x8, addend: 0x0, symName: __ZNKSt3__113basic_ostreamIcNS_11char_traitsIcEEE6sentrycvbB8ue170006Ev, symObjAddr: 0x28980, symBinAddr: 0x10002AD20, symSize: 0x104 }
  - { offsetInCU: 0x2207F, offset: 0x2207F, size: 0x8, addend: 0x0, symName: __ZNSt3__119ostreambuf_iteratorIcNS_11char_traitsIcEEEC1B8ue170006ERNS_13basic_ostreamIcS2_EE, symObjAddr: 0x2960C, symBinAddr: 0x10002B9AC, symSize: 0x80 }
  - { offsetInCU: 0x220B7, offset: 0x220B7, size: 0x8, addend: 0x0, symName: __ZNKSt3__18ios_base5flagsB8ue170006Ev, symObjAddr: 0x2968C, symBinAddr: 0x10002BA2C, symSize: 0x160 }
  - { offsetInCU: 0x220DF, offset: 0x220DF, size: 0x8, addend: 0x0, symName: __ZNKSt3__19basic_iosIcNS_11char_traitsIcEEE4fillB8ue170006Ev, symObjAddr: 0x297EC, symBinAddr: 0x10002BB8C, symSize: 0x39C }
  - { offsetInCU: 0x22107, offset: 0x22107, size: 0x8, addend: 0x0, symName: __ZNKSt3__119ostreambuf_iteratorIcNS_11char_traitsIcEEE6failedB8ue170006Ev, symObjAddr: 0x29B88, symBinAddr: 0x10002BF28, symSize: 0xB8 }
  - { offsetInCU: 0x2212D, offset: 0x2212D, size: 0x8, addend: 0x0, symName: __ZNKSt3__18ios_base5widthB8ue170006Ev, symObjAddr: 0x29C40, symBinAddr: 0x10002BFE0, symSize: 0x138 }
  - { offsetInCU: 0x22155, offset: 0x22155, size: 0x8, addend: 0x0, symName: __ZNSt3__115basic_streambufIcNS_11char_traitsIcEEE5sputnB8ue170006EPKcl, symObjAddr: 0x29D78, symBinAddr: 0x10002C118, symSize: 0x198 }
  - { offsetInCU: 0x22197, offset: 0x22197, size: 0x8, addend: 0x0, symName: __ZNSt3__112basic_stringIcNS_11char_traitsIcEENS_9allocatorIcEEE4dataB8ue170006Ev, symObjAddr: 0x29F10, symBinAddr: 0x10002C2B0, symSize: 0x70 }
  - { offsetInCU: 0x221BD, offset: 0x221BD, size: 0x8, addend: 0x0, symName: __ZNSt3__18ios_base5widthB8ue170006El, symObjAddr: 0x29F80, symBinAddr: 0x10002C320, symSize: 0x1F8 }
  - { offsetInCU: 0x22203, offset: 0x22203, size: 0x8, addend: 0x0, symName: __ZNSt3__112basic_stringIcNS_11char_traitsIcEENS_9allocatorIcEEE13__get_pointerB8ue170006Ev, symObjAddr: 0x2A18C, symBinAddr: 0x10002C52C, symSize: 0x98 }
  - { offsetInCU: 0x22229, offset: 0x22229, size: 0x8, addend: 0x0, symName: __ZNSt3__119ostreambuf_iteratorIcNS_11char_traitsIcEEEC2B8ue170006ERNS_13basic_ostreamIcS2_EE, symObjAddr: 0x2A224, symBinAddr: 0x10002C5C4, symSize: 0x2E8 }
  - { offsetInCU: 0x22261, offset: 0x22261, size: 0x8, addend: 0x0, symName: __ZNSt3__15dequeI8PositionNS_9allocatorIS1_EEE6__sizeB8ue170006Ev, symObjAddr: 0x2A530, symBinAddr: 0x10002C8D0, symSize: 0x100 }
  - { offsetInCU: 0x22287, offset: 0x22287, size: 0x8, addend: 0x0, symName: __ZNKSt3__15dequeI8PositionNS_9allocatorIS1_EEE23__annotate_shrink_frontB8ue170006Emm, symObjAddr: 0x2A630, symBinAddr: 0x10002C9D0, symSize: 0xB4 }
  - { offsetInCU: 0x222CB, offset: 0x222CB, size: 0x8, addend: 0x0, symName: __ZNSt3__15dequeI8PositionNS_9allocatorIS1_EEE26__maybe_remove_front_spareB8ue170006Eb, symObjAddr: 0x2A6E4, symBinAddr: 0x10002CA84, symSize: 0x2C0 }
  - { offsetInCU: 0x22300, offset: 0x22300, size: 0x8, addend: 0x0, symName: __ZNSt3__117__compressed_pairImNS_9allocatorI8PositionEEE5firstB8ue170006Ev, symObjAddr: 0x2A9A4, symBinAddr: 0x10002CD44, symSize: 0x124 }
  - { offsetInCU: 0x22326, offset: 0x22326, size: 0x8, addend: 0x0, symName: __ZNSt3__122__compressed_pair_elemImLi0ELb0EE5__getB8ue170006Ev, symObjAddr: 0x2AAC8, symBinAddr: 0x10002CE68, symSize: 0xAC }
  - { offsetInCU: 0x2234C, offset: 0x2234C, size: 0x8, addend: 0x0, symName: __ZNKSt3__15dequeI8PositionNS_9allocatorIS1_EEE20__front_spare_blocksB8ue170006Ev, symObjAddr: 0x2AB74, symBinAddr: 0x10002CF14, symSize: 0xA0 }
  - { offsetInCU: 0x22372, offset: 0x22372, size: 0x8, addend: 0x0, symName: __ZNSt3__114__split_bufferIP8PositionNS_9allocatorIS2_EEE5frontB8ue170006Ev, symObjAddr: 0x2AC14, symBinAddr: 0x10002CFB4, symSize: 0xF8 }
  - { offsetInCU: 0x22398, offset: 0x22398, size: 0x8, addend: 0x0, symName: __ZNSt3__114__split_bufferIP8PositionNS_9allocatorIS2_EEE9pop_frontB8ue170006Ev, symObjAddr: 0x2AD0C, symBinAddr: 0x10002D0AC, symSize: 0x150 }
  - { offsetInCU: 0x223BE, offset: 0x223BE, size: 0x8, addend: 0x0, symName: __ZNKSt3__15dequeI8PositionNS_9allocatorIS1_EEE13__front_spareB8ue170006Ev, symObjAddr: 0x2AE5C, symBinAddr: 0x10002D1FC, symSize: 0xB0 }
  - { offsetInCU: 0x223E4, offset: 0x223E4, size: 0x8, addend: 0x0, symName: __ZNSt3__114__split_bufferIP8PositionNS_9allocatorIS2_EEE19__destruct_at_beginB8ue170006EPS2_, symObjAddr: 0x2AF0C, symBinAddr: 0x10002D2AC, symSize: 0x74 }
  - { offsetInCU: 0x22418, offset: 0x22418, size: 0x8, addend: 0x0, symName: __ZNSt3__114__split_bufferIP8PositionNS_9allocatorIS2_EEE19__destruct_at_beginEPS2_NS_17integral_constantIbLb1EEE, symObjAddr: 0x2AF80, symBinAddr: 0x10002D320, symSize: 0xC0 }
  - { offsetInCU: 0x22458, offset: 0x22458, size: 0x8, addend: 0x0, symName: __ZNSt3__15dequeI8PositionNS_9allocatorIS1_EEE5beginB8ue170006Ev, symObjAddr: 0x2B040, symBinAddr: 0x10002D3E0, symSize: 0x658 }
  - { offsetInCU: 0x2248F, offset: 0x2248F, size: 0x8, addend: 0x0, symName: __ZNSt3__15dequeI8PositionNS_9allocatorIS1_EEE3endB8ue170006Ev, symObjAddr: 0x2B698, symBinAddr: 0x10002DA38, symSize: 0x61C }
  - { offsetInCU: 0x224D6, offset: 0x224D6, size: 0x8, addend: 0x0, symName: __ZNKSt3__116__deque_iteratorI8PositionPS1_RS1_PS2_lLl341EEdeB8ue170006Ev, symObjAddr: 0x2BD78, symBinAddr: 0x10002E118, symSize: 0xF8 }
  - { offsetInCU: 0x224FC, offset: 0x224FC, size: 0x8, addend: 0x0, symName: __ZNSt3__116__deque_iteratorI8PositionPS1_RS1_PS2_lLl341EEppB8ue170006Ev, symObjAddr: 0x2BE70, symBinAddr: 0x10002E210, symSize: 0x46C }
  - { offsetInCU: 0x22522, offset: 0x22522, size: 0x8, addend: 0x0, symName: __ZNKSt3__114__split_bufferIP8PositionNS_9allocatorIS2_EEE5emptyB8ue170006Ev, symObjAddr: 0x2C2DC, symBinAddr: 0x10002E67C, symSize: 0xFC }
  - { offsetInCU: 0x22548, offset: 0x22548, size: 0x8, addend: 0x0, symName: __ZNSt3__116__deque_iteratorI8PositionPS1_RS1_PS2_lLl341EEC1B8ue170006ES4_S2_, symObjAddr: 0x2C3D8, symBinAddr: 0x10002E778, symSize: 0x88 }
  - { offsetInCU: 0x22590, offset: 0x22590, size: 0x8, addend: 0x0, symName: __ZNSt3__116__deque_iteratorI8PositionPS1_RS1_PS2_lLl341EEC2B8ue170006ES4_S2_, symObjAddr: 0x2C460, symBinAddr: 0x10002E800, symSize: 0x110 }
  - { offsetInCU: 0x225D8, offset: 0x225D8, size: 0x8, addend: 0x0, symName: __ZNKSt3__15dequeI8PositionNS_9allocatorIS1_EEE12__back_spareB8ue170006Ev, symObjAddr: 0x2C694, symBinAddr: 0x10002EA34, symSize: 0xD4 }
  - { offsetInCU: 0x225FE, offset: 0x225FE, size: 0x8, addend: 0x0, symName: __ZNSt3__15dequeI8PositionNS_9allocatorIS1_EEE19__add_back_capacityEv, symObjAddr: 0x2C768, symBinAddr: 0x10002EB08, symSize: 0x13D4 }
  - { offsetInCU: 0x226BE, offset: 0x226BE, size: 0x8, addend: 0x0, symName: __ZNKSt3__15dequeI8PositionNS_9allocatorIS1_EEE24__annotate_increase_backB8ue170006Em, symObjAddr: 0x2DB3C, symBinAddr: 0x10002FEDC, symSize: 0x134 }
  - { offsetInCU: 0x226F3, offset: 0x226F3, size: 0x8, addend: 0x0, symName: __ZNSt3__116allocator_traitsINS_9allocatorI8PositionEEE9constructB8ue170006IS2_JRKS2_EvEEvRS3_PT_DpOT0_, symObjAddr: 0x2DC70, symBinAddr: 0x100030010, symSize: 0x8C }
  - { offsetInCU: 0x2274A, offset: 0x2274A, size: 0x8, addend: 0x0, symName: __ZNKSt3__15dequeI8PositionNS_9allocatorIS1_EEE10__capacityB8ue170006Ev, symObjAddr: 0x2DCFC, symBinAddr: 0x10003009C, symSize: 0x130 }
  - { offsetInCU: 0x22770, offset: 0x22770, size: 0x8, addend: 0x0, symName: __ZNSt3__114__split_bufferIP8PositionNS_9allocatorIS2_EEE9push_backB8ue170006ERKS2_, symObjAddr: 0x2DE2C, symBinAddr: 0x1000301CC, symSize: 0x1138 }
  - { offsetInCU: 0x227EF, offset: 0x227EF, size: 0x8, addend: 0x0, symName: __ZNKSt3__114__split_bufferIP8PositionNS_9allocatorIS2_EEE12__back_spareB8ue170006Ev, symObjAddr: 0x2EF64, symBinAddr: 0x100031304, symSize: 0x148 }
  - { offsetInCU: 0x22815, offset: 0x22815, size: 0x8, addend: 0x0, symName: __ZNSt3__114__split_bufferIP8PositionNS_9allocatorIS2_EEE9push_backEOS2_, symObjAddr: 0x2F0AC, symBinAddr: 0x10003144C, symSize: 0x1138 }
  - { offsetInCU: 0x22894, offset: 0x22894, size: 0x8, addend: 0x0, symName: __ZNSt3__116allocator_traitsINS_9allocatorI8PositionEEE8allocateB8ue170006ERS3_m, symObjAddr: 0x301E4, symBinAddr: 0x100032584, symSize: 0x2C }
  - { offsetInCU: 0x228C7, offset: 0x228C7, size: 0x8, addend: 0x0, symName: __ZNSt3__114__split_bufferIP8PositionNS_9allocatorIS2_EEE10push_frontEOS2_, symObjAddr: 0x30210, symBinAddr: 0x1000325B0, symSize: 0x1214 }
  - { offsetInCU: 0x22946, offset: 0x22946, size: 0x8, addend: 0x0, symName: __ZNSt3__114__split_bufferIP8PositionRNS_9allocatorIS2_EEEC1EmmS5_, symObjAddr: 0x31528, symBinAddr: 0x1000338C8, symSize: 0x90 }
  - { offsetInCU: 0x229A1, offset: 0x229A1, size: 0x8, addend: 0x0, symName: __ZNSt3__122__allocator_destructorINS_9allocatorI8PositionEEEC1B8ue170006ERS3_m, symObjAddr: 0x315B8, symBinAddr: 0x100033958, symSize: 0x88 }
  - { offsetInCU: 0x22A50, offset: 0x22A50, size: 0x8, addend: 0x0, symName: __ZNSt3__110unique_ptrIP8PositionNS_22__allocator_destructorINS_9allocatorIS1_EEEEEC1B8ue170006ILb1EvEES2_NS_16__dependent_typeINS_27__unique_ptr_deleter_sfinaeIS6_EEXT_EE20__good_rval_ref_typeE, symObjAddr: 0x31640, symBinAddr: 0x1000339E0, symSize: 0x88 }
  - { offsetInCU: 0x22AA1, offset: 0x22AA1, size: 0x8, addend: 0x0, symName: __ZNSt3__114__split_bufferIP8PositionRNS_9allocatorIS2_EEE9push_backEOS2_, symObjAddr: 0x316C8, symBinAddr: 0x100033A68, symSize: 0x1138 }
  - { offsetInCU: 0x22B20, offset: 0x22B20, size: 0x8, addend: 0x0, symName: __ZNKSt3__110unique_ptrIP8PositionNS_22__allocator_destructorINS_9allocatorIS1_EEEEE3getB8ue170006Ev, symObjAddr: 0x32800, symBinAddr: 0x100034BA0, symSize: 0x13C }
  - { offsetInCU: 0x22B46, offset: 0x22B46, size: 0x8, addend: 0x0, symName: __ZNSt3__110unique_ptrIP8PositionNS_22__allocator_destructorINS_9allocatorIS1_EEEEE7releaseB8ue170006Ev, symObjAddr: 0x3293C, symBinAddr: 0x100034CDC, symSize: 0x20C }
  - { offsetInCU: 0x22B7B, offset: 0x22B7B, size: 0x8, addend: 0x0, symName: __ZNSt3__114__split_bufferIP8PositionRNS_9allocatorIS2_EEE10push_frontERKS2_, symObjAddr: 0x32B48, symBinAddr: 0x100034EE8, symSize: 0x1214 }
  - { offsetInCU: 0x22BFA, offset: 0x22BFA, size: 0x8, addend: 0x0, symName: __ZNSt3__114__split_bufferIP8PositionNS_9allocatorIS2_EEE9__end_capB8ue170006Ev, symObjAddr: 0x33F1C, symBinAddr: 0x1000362BC, symSize: 0x100 }
  - { offsetInCU: 0x22C20, offset: 0x22C20, size: 0x8, addend: 0x0, symName: __ZNSt3__114__split_bufferIP8PositionRNS_9allocatorIS2_EEE9__end_capB8ue170006Ev, symObjAddr: 0x3401C, symBinAddr: 0x1000363BC, symSize: 0x100 }
  - { offsetInCU: 0x22C46, offset: 0x22C46, size: 0x8, addend: 0x0, symName: __ZNSt3__110unique_ptrIP8PositionNS_22__allocator_destructorINS_9allocatorIS1_EEEEED1B8ue170006Ev, symObjAddr: 0x3411C, symBinAddr: 0x1000364BC, symSize: 0x78 }
  - { offsetInCU: 0x22C70, offset: 0x22C70, size: 0x8, addend: 0x0, symName: __ZNSt3__114__split_bufferIP8PositionRNS_9allocatorIS2_EEED1Ev, symObjAddr: 0x34194, symBinAddr: 0x100036534, symSize: 0x78 }
  - { offsetInCU: 0x22C9C, offset: 0x22C9C, size: 0x8, addend: 0x0, symName: __ZNSt3__114__split_bufferIP8PositionRNS_9allocatorIS2_EEE18__construct_at_endINS_13move_iteratorIPS2_EEEENS_9enable_ifIXsr31__has_forward_iterator_categoryIT_EE5valueEvE4typeESC_SC_, symObjAddr: 0x344C0, symBinAddr: 0x100036860, symSize: 0x414 }
  - { offsetInCU: 0x22CF2, offset: 0x22CF2, size: 0x8, addend: 0x0, symName: __ZNSt3__113move_iteratorIPP8PositionEC1B8ue170006ES3_, symObjAddr: 0x348D4, symBinAddr: 0x100036C74, symSize: 0x80 }
  - { offsetInCU: 0x22D2A, offset: 0x22D2A, size: 0x8, addend: 0x0, symName: __ZNSt3__116allocator_traitsINS_9allocatorIP8PositionEEE9constructB8ue170006IS3_JRKS3_EvEEvRS4_PT_DpOT0_, symObjAddr: 0x34954, symBinAddr: 0x100036CF4, symSize: 0x8C }
  - { offsetInCU: 0x22DA4, offset: 0x22DA4, size: 0x8, addend: 0x0, symName: __ZNKSt3__114__move_trivialclB8ue170006IP8PositionS3_Li0EEENS_4pairIPT_PT0_EES6_S6_S8_, symObjAddr: 0x357BC, symBinAddr: 0x100037B5C, symSize: 0x25C }
  - { offsetInCU: 0x22E15, offset: 0x22E15, size: 0x8, addend: 0x0, symName: __ZNSt3__14pairIPP8PositionS3_EC1B8ue170006IRS3_S3_LPv0EEEOT_OT0_, symObjAddr: 0x364D4, symBinAddr: 0x100038874, symSize: 0x88 }
  - { offsetInCU: 0x22E73, offset: 0x22E73, size: 0x8, addend: 0x0, symName: __ZNSt3__14pairIPP8PositionS3_EC2B8ue170006IRS3_S3_LPv0EEEOT_OT0_, symObjAddr: 0x3655C, symBinAddr: 0x1000388FC, symSize: 0x210 }
  - { offsetInCU: 0x22ED1, offset: 0x22ED1, size: 0x8, addend: 0x0, symName: __ZNSt3__118__unwrap_iter_implIPP8PositionLb1EE8__unwrapB8ue170006ES3_, symObjAddr: 0x3676C, symBinAddr: 0x100038B0C, symSize: 0x24 }
  - { offsetInCU: 0x22EF4, offset: 0x22EF4, size: 0x8, addend: 0x0, symName: __ZNSt3__14pairIPP8PositionS3_EC1B8ue170006IS3_S3_LPv0EEEOT_OT0_, symObjAddr: 0x36790, symBinAddr: 0x100038B30, symSize: 0x88 }
  - { offsetInCU: 0x22F52, offset: 0x22F52, size: 0x8, addend: 0x0, symName: __ZNSt3__14pairIPP8PositionS3_EC2B8ue170006IS3_S3_LPv0EEEOT_OT0_, symObjAddr: 0x36818, symBinAddr: 0x100038BB8, symSize: 0x210 }
  - { offsetInCU: 0x22FB0, offset: 0x22FB0, size: 0x8, addend: 0x0, symName: __ZNSt3__118__unwrap_iter_implIPP8PositionLb1EE8__rewrapB8ue170006ES3_S3_, symObjAddr: 0x36A28, symBinAddr: 0x100038DC8, symSize: 0x13C }
  - { offsetInCU: 0x22FE1, offset: 0x22FE1, size: 0x8, addend: 0x0, symName: __ZNSt3__114__split_bufferIP8PositionRNS_9allocatorIS2_EEE28__construct_at_end_with_sizeINS_13move_iteratorIPS2_EEEEvT_m, symObjAddr: 0x36B64, symBinAddr: 0x100038F04, symSize: 0x610 }
  - { offsetInCU: 0x23051, offset: 0x23051, size: 0x8, addend: 0x0, symName: __ZNSt3__114__split_bufferIP8PositionRNS_9allocatorIS2_EEE21_ConstructTransactionC1B8ue170006EPPS2_m, symObjAddr: 0x374C4, symBinAddr: 0x100039864, symSize: 0x88 }
  - { offsetInCU: 0x23097, offset: 0x23097, size: 0x8, addend: 0x0, symName: __ZNSt3__116allocator_traitsINS_9allocatorIP8PositionEEE9constructB8ue170006IS3_JS3_EvEEvRS4_PT_DpOT0_, symObjAddr: 0x3754C, symBinAddr: 0x1000398EC, symSize: 0x8C }
  - { offsetInCU: 0x230EE, offset: 0x230EE, size: 0x8, addend: 0x0, symName: __ZNSt3__114__split_bufferIP8PositionRNS_9allocatorIS2_EEE7__allocB8ue170006Ev, symObjAddr: 0x375D8, symBinAddr: 0x100039978, symSize: 0xE4 }
  - { offsetInCU: 0x23114, offset: 0x23114, size: 0x8, addend: 0x0, symName: __ZNKSt3__113move_iteratorIPP8PositionEdeB8ue170006Ev, symObjAddr: 0x376BC, symBinAddr: 0x100039A5C, symSize: 0xF4 }
  - { offsetInCU: 0x2313A, offset: 0x2313A, size: 0x8, addend: 0x0, symName: __ZNSt3__113move_iteratorIPP8PositionEppB8ue170006Ev, symObjAddr: 0x377B0, symBinAddr: 0x100039B50, symSize: 0x1A8 }
  - { offsetInCU: 0x23160, offset: 0x23160, size: 0x8, addend: 0x0, symName: __ZNSt3__114__split_bufferIP8PositionRNS_9allocatorIS2_EEE21_ConstructTransactionD1B8ue170006Ev, symObjAddr: 0x37958, symBinAddr: 0x100039CF8, symSize: 0x78 }
  - { offsetInCU: 0x2318A, offset: 0x2318A, size: 0x8, addend: 0x0, symName: __ZNSt3__114__split_bufferIP8PositionRNS_9allocatorIS2_EEE21_ConstructTransactionC2B8ue170006EPPS2_m, symObjAddr: 0x379D0, symBinAddr: 0x100039D70, symSize: 0x324 }
  - { offsetInCU: 0x231D0, offset: 0x231D0, size: 0x8, addend: 0x0, symName: __ZNSt3__19allocatorIP8PositionE9constructB8ue170006IS2_JS2_EEEvPT_DpOT0_, symObjAddr: 0x37CF4, symBinAddr: 0x10003A094, symSize: 0x168 }
  - { offsetInCU: 0x23226, offset: 0x23226, size: 0x8, addend: 0x0, symName: __ZNSt3__117__compressed_pairIPP8PositionRNS_9allocatorIS2_EEE6secondB8ue170006Ev, symObjAddr: 0x37E5C, symBinAddr: 0x10003A1FC, symSize: 0x110 }
  - { offsetInCU: 0x2324C, offset: 0x2324C, size: 0x8, addend: 0x0, symName: __ZNSt3__122__compressed_pair_elemIRNS_9allocatorIP8PositionEELi1ELb0EE5__getB8ue170006Ev, symObjAddr: 0x37F6C, symBinAddr: 0x10003A30C, symSize: 0xD8 }
  - { offsetInCU: 0x23272, offset: 0x23272, size: 0x8, addend: 0x0, symName: __ZNSt3__114__split_bufferIP8PositionRNS_9allocatorIS2_EEE21_ConstructTransactionD2B8ue170006Ev, symObjAddr: 0x38044, symBinAddr: 0x10003A3E4, symSize: 0x174 }
  - { offsetInCU: 0x2329C, offset: 0x2329C, size: 0x8, addend: 0x0, symName: __ZNKSt3__113move_iteratorIPP8PositionE4baseB8ue170006Ev, symObjAddr: 0x384C8, symBinAddr: 0x10003A868, symSize: 0xAC }
  - { offsetInCU: 0x232C2, offset: 0x232C2, size: 0x8, addend: 0x0, symName: __ZNSt3__113move_iteratorIPP8PositionEC2B8ue170006ES3_, symObjAddr: 0x38574, symBinAddr: 0x10003A914, symSize: 0xC8 }
  - { offsetInCU: 0x232FA, offset: 0x232FA, size: 0x8, addend: 0x0, symName: __ZNSt3__19allocatorIP8PositionE9constructB8ue170006IS2_JRKS2_EEEvPT_DpOT0_, symObjAddr: 0x3863C, symBinAddr: 0x10003A9DC, symSize: 0x168 }
  - { offsetInCU: 0x23350, offset: 0x23350, size: 0x8, addend: 0x0, symName: __ZNSt3__19allocatorI8PositionE8allocateB8ue170006Em, symObjAddr: 0x387A4, symBinAddr: 0x10003AB44, symSize: 0xD0 }
  - { offsetInCU: 0x2338E, offset: 0x2338E, size: 0x8, addend: 0x0, symName: __ZNSt3__116allocator_traitsINS_9allocatorI8PositionEEE8max_sizeB8ue170006IS3_vEEmRKS3_, symObjAddr: 0x38874, symBinAddr: 0x10003AC14, symSize: 0x24 }
  - { offsetInCU: 0x233BC, offset: 0x233BC, size: 0x8, addend: 0x0, symName: __ZNKSt3__19allocatorI8PositionE8max_sizeB8ue170006Ev, symObjAddr: 0x38974, symBinAddr: 0x10003AD14, symSize: 0x50 }
  - { offsetInCU: 0x233EC, offset: 0x233EC, size: 0x8, addend: 0x0, symName: __ZNKSt3__123__move_backward_trivialclB8ue170006IP8PositionS3_Li0EEENS_4pairIPT_PT0_EES6_S6_S8_, symObjAddr: 0x39794, symBinAddr: 0x10003BB34, symSize: 0x25C }
  - { offsetInCU: 0x23458, offset: 0x23458, size: 0x8, addend: 0x0, symName: __ZNSt3__14pairIPP8PositionS3_EC1B8ue170006IRS3_S6_LPv0EEEOT_OT0_, symObjAddr: 0x3A170, symBinAddr: 0x10003C510, symSize: 0x88 }
  - { offsetInCU: 0x234B6, offset: 0x234B6, size: 0x8, addend: 0x0, symName: __ZNSt3__14pairIPP8PositionS3_EC2B8ue170006IRS3_S6_LPv0EEEOT_OT0_, symObjAddr: 0x3A1F8, symBinAddr: 0x10003C598, symSize: 0x210 }
  - { offsetInCU: 0x2351E, offset: 0x2351E, size: 0x8, addend: 0x0, symName: __ZNKSt3__16__lessIvvEclB8ue170006ImmEEbRKT_RKT0_, symObjAddr: 0x3A6C8, symBinAddr: 0x10003CA68, symSize: 0xEC }
  - { offsetInCU: 0x23572, offset: 0x23572, size: 0x8, addend: 0x0, symName: __ZNSt3__114__split_bufferIP8PositionRNS_9allocatorIS2_EEEC2EmmS5_, symObjAddr: 0x3A7B4, symBinAddr: 0x10003CB54, symSize: 0x7D8 }
  - { offsetInCU: 0x235ED, offset: 0x235ED, size: 0x8, addend: 0x0, symName: __ZNSt3__117__compressed_pairIPP8PositionRNS_9allocatorIS2_EEEC1B8ue170006IDnS6_EEOT_OT0_, symObjAddr: 0x3AF8C, symBinAddr: 0x10003D32C, symSize: 0x88 }
  - { offsetInCU: 0x23645, offset: 0x23645, size: 0x8, addend: 0x0, symName: __ZNSt3__117__compressed_pairIPP8PositionRNS_9allocatorIS2_EEEC2B8ue170006IDnS6_EEOT_OT0_, symObjAddr: 0x3B2A0, symBinAddr: 0x10003D640, symSize: 0x198 }
  - { offsetInCU: 0x2369D, offset: 0x2369D, size: 0x8, addend: 0x0, symName: __ZNSt3__122__compressed_pair_elemIRNS_9allocatorIP8PositionEELi1ELb0EEC2B8ue170006IS5_vEEOT_, symObjAddr: 0x3B438, symBinAddr: 0x10003D7D8, symSize: 0xEC }
  - { offsetInCU: 0x236DF, offset: 0x236DF, size: 0x8, addend: 0x0, symName: __ZNSt3__19allocatorIP8PositionE8allocateB8ue170006Em, symObjAddr: 0x3B524, symBinAddr: 0x10003D8C4, symSize: 0xCC }
  - { offsetInCU: 0x2371D, offset: 0x2371D, size: 0x8, addend: 0x0, symName: __ZNSt3__116allocator_traitsINS_9allocatorIP8PositionEEE8max_sizeB8ue170006IS4_vEEmRKS4_, symObjAddr: 0x3B5F0, symBinAddr: 0x10003D990, symSize: 0x24 }
  - { offsetInCU: 0x2374B, offset: 0x2374B, size: 0x8, addend: 0x0, symName: __ZNKSt3__19allocatorIP8PositionE8max_sizeB8ue170006Ev, symObjAddr: 0x3B614, symBinAddr: 0x10003D9B4, symSize: 0x4C }
  - { offsetInCU: 0x23771, offset: 0x23771, size: 0x8, addend: 0x0, symName: __ZNSt3__122__allocator_destructorINS_9allocatorI8PositionEEEC2B8ue170006ERS3_m, symObjAddr: 0x3B660, symBinAddr: 0x10003DA00, symSize: 0x134 }
  - { offsetInCU: 0x237B7, offset: 0x237B7, size: 0x8, addend: 0x0, symName: __ZNSt3__110unique_ptrIP8PositionNS_22__allocator_destructorINS_9allocatorIS1_EEEEEC2B8ue170006ILb1EvEES2_NS_16__dependent_typeINS_27__unique_ptr_deleter_sfinaeIS6_EEXT_EE20__good_rval_ref_typeE, symObjAddr: 0x3B794, symBinAddr: 0x10003DB34, symSize: 0x2BC }
  - { offsetInCU: 0x2380E, offset: 0x2380E, size: 0x8, addend: 0x0, symName: __ZNSt3__117__compressed_pairIP8PositionNS_22__allocator_destructorINS_9allocatorIS1_EEEEEC1B8ue170006IRS2_S6_EEOT_OT0_, symObjAddr: 0x3BA50, symBinAddr: 0x10003DDF0, symSize: 0x88 }
  - { offsetInCU: 0x23866, offset: 0x23866, size: 0x8, addend: 0x0, symName: __ZNSt3__117__compressed_pairIP8PositionNS_22__allocator_destructorINS_9allocatorIS1_EEEEEC2B8ue170006IRS2_S6_EEOT_OT0_, symObjAddr: 0x3BAD8, symBinAddr: 0x10003DE78, symSize: 0x1B4 }
  - { offsetInCU: 0x238BE, offset: 0x238BE, size: 0x8, addend: 0x0, symName: __ZNSt3__122__compressed_pair_elemIP8PositionLi0ELb0EEC2B8ue170006IRS2_vEEOT_, symObjAddr: 0x3BC8C, symBinAddr: 0x10003E02C, symSize: 0x144 }
  - { offsetInCU: 0x23900, offset: 0x23900, size: 0x8, addend: 0x0, symName: __ZNSt3__122__compressed_pair_elemINS_22__allocator_destructorINS_9allocatorI8PositionEEEELi1ELb0EEC2B8ue170006IS5_vEEOT_, symObjAddr: 0x3BDD0, symBinAddr: 0x10003E170, symSize: 0x84 }
  - { offsetInCU: 0x23942, offset: 0x23942, size: 0x8, addend: 0x0, symName: __ZNKSt3__117__compressed_pairIP8PositionNS_22__allocator_destructorINS_9allocatorIS1_EEEEE5firstB8ue170006Ev, symObjAddr: 0x3BE54, symBinAddr: 0x10003E1F4, symSize: 0x124 }
  - { offsetInCU: 0x23968, offset: 0x23968, size: 0x8, addend: 0x0, symName: __ZNSt3__117__compressed_pairIP8PositionNS_22__allocator_destructorINS_9allocatorIS1_EEEEE5firstB8ue170006Ev, symObjAddr: 0x3BF78, symBinAddr: 0x10003E318, symSize: 0x124 }
  - { offsetInCU: 0x2398E, offset: 0x2398E, size: 0x8, addend: 0x0, symName: __ZNSt3__122__compressed_pair_elemIP8PositionLi0ELb0EE5__getB8ue170006Ev, symObjAddr: 0x3C09C, symBinAddr: 0x10003E43C, symSize: 0xAC }
  - { offsetInCU: 0x239B4, offset: 0x239B4, size: 0x8, addend: 0x0, symName: __ZNSt3__117__compressed_pairIPP8PositionNS_9allocatorIS2_EEE5firstB8ue170006Ev, symObjAddr: 0x3C148, symBinAddr: 0x10003E4E8, symSize: 0x124 }
  - { offsetInCU: 0x239DA, offset: 0x239DA, size: 0x8, addend: 0x0, symName: __ZNSt3__122__compressed_pair_elemIPP8PositionLi0ELb0EE5__getB8ue170006Ev, symObjAddr: 0x3C26C, symBinAddr: 0x10003E60C, symSize: 0xAC }
  - { offsetInCU: 0x23A00, offset: 0x23A00, size: 0x8, addend: 0x0, symName: __ZNSt3__117__compressed_pairIPP8PositionRNS_9allocatorIS2_EEE5firstB8ue170006Ev, symObjAddr: 0x3C318, symBinAddr: 0x10003E6B8, symSize: 0x124 }
  - { offsetInCU: 0x23A26, offset: 0x23A26, size: 0x8, addend: 0x0, symName: __ZNSt3__110unique_ptrIP8PositionNS_22__allocator_destructorINS_9allocatorIS1_EEEEED2B8ue170006Ev, symObjAddr: 0x3C43C, symBinAddr: 0x10003E7DC, symSize: 0x7C }
  - { offsetInCU: 0x23A50, offset: 0x23A50, size: 0x8, addend: 0x0, symName: __ZNSt3__110unique_ptrIP8PositionNS_22__allocator_destructorINS_9allocatorIS1_EEEEE5resetB8ue170006ES2_, symObjAddr: 0x3C4B8, symBinAddr: 0x10003E858, symSize: 0x2CC }
  - { offsetInCU: 0x23A94, offset: 0x23A94, size: 0x8, addend: 0x0, symName: __ZNSt3__117__compressed_pairIP8PositionNS_22__allocator_destructorINS_9allocatorIS1_EEEEE6secondB8ue170006Ev, symObjAddr: 0x3C784, symBinAddr: 0x10003EB24, symSize: 0x12C }
  - { offsetInCU: 0x23ABA, offset: 0x23ABA, size: 0x8, addend: 0x0, symName: __ZNSt3__122__allocator_destructorINS_9allocatorI8PositionEEEclB8ue170006EPS2_, symObjAddr: 0x3C8B0, symBinAddr: 0x10003EC50, symSize: 0x128 }
  - { offsetInCU: 0x23AEE, offset: 0x23AEE, size: 0x8, addend: 0x0, symName: __ZNSt3__122__compressed_pair_elemINS_22__allocator_destructorINS_9allocatorI8PositionEEEELi1ELb0EE5__getB8ue170006Ev, symObjAddr: 0x3C9D8, symBinAddr: 0x10003ED78, symSize: 0xAC }
  - { offsetInCU: 0x23B14, offset: 0x23B14, size: 0x8, addend: 0x0, symName: __ZNSt3__114__split_bufferIP8PositionRNS_9allocatorIS2_EEED2Ev, symObjAddr: 0x3CA84, symBinAddr: 0x10003EE24, symSize: 0x16C }
  - { offsetInCU: 0x23B40, offset: 0x23B40, size: 0x8, addend: 0x0, symName: __ZNSt3__114__split_bufferIP8PositionRNS_9allocatorIS2_EEE5clearB8ue170006Ev, symObjAddr: 0x3CBF0, symBinAddr: 0x10003EF90, symSize: 0xB4 }
  - { offsetInCU: 0x23B66, offset: 0x23B66, size: 0x8, addend: 0x0, symName: __ZNKSt3__114__split_bufferIP8PositionRNS_9allocatorIS2_EEE8capacityB8ue170006Ev, symObjAddr: 0x3CCA4, symBinAddr: 0x10003F044, symSize: 0x144 }
  - { offsetInCU: 0x23B8C, offset: 0x23B8C, size: 0x8, addend: 0x0, symName: __ZNSt3__114__split_bufferIP8PositionRNS_9allocatorIS2_EEE17__destruct_at_endB8ue170006EPS2_, symObjAddr: 0x3CDE8, symBinAddr: 0x10003F188, symSize: 0x74 }
  - { offsetInCU: 0x23BC0, offset: 0x23BC0, size: 0x8, addend: 0x0, symName: __ZNSt3__114__split_bufferIP8PositionRNS_9allocatorIS2_EEE17__destruct_at_endB8ue170006EPS2_NS_17integral_constantIbLb0EEE, symObjAddr: 0x3CE5C, symBinAddr: 0x10003F1FC, symSize: 0x224 }
  - { offsetInCU: 0x23C00, offset: 0x23C00, size: 0x8, addend: 0x0, symName: __ZNKSt3__114__split_bufferIP8PositionRNS_9allocatorIS2_EEE9__end_capB8ue170006Ev, symObjAddr: 0x3D080, symBinAddr: 0x10003F420, symSize: 0x100 }
  - { offsetInCU: 0x23C26, offset: 0x23C26, size: 0x8, addend: 0x0, symName: __ZNKSt3__117__compressed_pairIPP8PositionRNS_9allocatorIS2_EEE5firstB8ue170006Ev, symObjAddr: 0x3D180, symBinAddr: 0x10003F520, symSize: 0x124 }
  - { offsetInCU: 0x23C4C, offset: 0x23C4C, size: 0x8, addend: 0x0, symName: __ZNSt3__19allocatorI8PositionE9constructB8ue170006IS1_JRKS1_EEEvPT_DpOT0_, symObjAddr: 0x3D2A4, symBinAddr: 0x10003F644, symSize: 0xA8 }
  - { offsetInCU: 0x23CA2, offset: 0x23CA2, size: 0x8, addend: 0x0, symName: __ZNSt3__16vectorIbNS_9allocatorIbEEEC2EmRKb, symObjAddr: 0x3D34C, symBinAddr: 0x10003F6EC, symSize: 0x404 }
  - { offsetInCU: 0x23CEF, offset: 0x23CEF, size: 0x8, addend: 0x0, symName: __ZNSt3__117__compressed_pairImNS_9allocatorImEEEC1B8ue170006IiNS_18__default_init_tagEEEOT_OT0_, symObjAddr: 0x3D750, symBinAddr: 0x10003FAF0, symSize: 0x88 }
  - { offsetInCU: 0x23D47, offset: 0x23D47, size: 0x8, addend: 0x0, symName: __ZNSt3__16vectorIbNS_9allocatorIbEEE11__vallocateB8ue170006Em, symObjAddr: 0x3D7D8, symBinAddr: 0x10003FB78, symSize: 0x498 }
  - { offsetInCU: 0x23D91, offset: 0x23D91, size: 0x8, addend: 0x0, symName: __ZNSt3__16vectorIbNS_9allocatorIbEEE18__construct_at_endB8ue170006Emb, symObjAddr: 0x3DC70, symBinAddr: 0x100040010, symSize: 0x6D4 }
  - { offsetInCU: 0x23DEA, offset: 0x23DEA, size: 0x8, addend: 0x0, symName: __ZNSt3__117__compressed_pairImNS_9allocatorImEEEC2B8ue170006IiNS_18__default_init_tagEEEOT_OT0_, symObjAddr: 0x3E344, symBinAddr: 0x1000406E4, symSize: 0x140 }
  - { offsetInCU: 0x23E42, offset: 0x23E42, size: 0x8, addend: 0x0, symName: __ZNSt3__122__compressed_pair_elemINS_9allocatorImEELi1ELb1EEC2B8ue170006ENS_18__default_init_tagE, symObjAddr: 0x3E484, symBinAddr: 0x100040824, symSize: 0x84 }
  - { offsetInCU: 0x23E76, offset: 0x23E76, size: 0x8, addend: 0x0, symName: __ZNSt3__19allocatorImEC2B8ue170006Ev, symObjAddr: 0x3E508, symBinAddr: 0x1000408A8, symSize: 0x84 }
  - { offsetInCU: 0x23EA0, offset: 0x23EA0, size: 0x8, addend: 0x0, symName: __ZNSt3__116__non_trivial_ifILb1ENS_9allocatorImEEEC2B8ue170006Ev, symObjAddr: 0x3E58C, symBinAddr: 0x10004092C, symSize: 0x54 }
  - { offsetInCU: 0x23ECA, offset: 0x23ECA, size: 0x8, addend: 0x0, symName: __ZNKSt3__16vectorIbNS_9allocatorIbEEE8max_sizeEv, symObjAddr: 0x3E5E0, symBinAddr: 0x100040980, symSize: 0x158 }
  - { offsetInCU: 0x23F10, offset: 0x23F10, size: 0x8, addend: 0x0, symName: __ZNKSt3__16vectorIbNS_9allocatorIbEEE20__throw_length_errorB8ue170006Ev, symObjAddr: 0x3E738, symBinAddr: 0x100040AD8, symSize: 0x80 }
  - { offsetInCU: 0x23F36, offset: 0x23F36, size: 0x8, addend: 0x0, symName: __ZNSt3__16vectorIbNS_9allocatorIbEEE7__allocB8ue170006Ev, symObjAddr: 0x3EA44, symBinAddr: 0x100040DE4, symSize: 0xE4 }
  - { offsetInCU: 0x23F5C, offset: 0x23F5C, size: 0x8, addend: 0x0, symName: __ZNSt3__16vectorIbNS_9allocatorIbEEE26__external_cap_to_internalB8ue170006Em, symObjAddr: 0x3EB28, symBinAddr: 0x100040EC8, symSize: 0x5C }
  - { offsetInCU: 0x23F80, offset: 0x23F80, size: 0x8, addend: 0x0, symName: __ZNSt3__16vectorIbNS_9allocatorIbEEE5__capB8ue170006Ev, symObjAddr: 0x3EB84, symBinAddr: 0x100040F24, symSize: 0x100 }
  - { offsetInCU: 0x23FB0, offset: 0x23FB0, size: 0x8, addend: 0x0, symName: __ZNSt3__116allocator_traitsINS_9allocatorImEEE8max_sizeB8ue170006IS2_vEEmRKS2_, symObjAddr: 0x3EC84, symBinAddr: 0x100041024, symSize: 0x24 }
  - { offsetInCU: 0x23FDE, offset: 0x23FDE, size: 0x8, addend: 0x0, symName: __ZNKSt3__16vectorIbNS_9allocatorIbEEE7__allocB8ue170006Ev, symObjAddr: 0x3ECA8, symBinAddr: 0x100041048, symSize: 0xE4 }
  - { offsetInCU: 0x24004, offset: 0x24004, size: 0x8, addend: 0x0, symName: __ZNSt3__16vectorIbNS_9allocatorIbEEE26__internal_cap_to_externalB8ue170006Em, symObjAddr: 0x3ED8C, symBinAddr: 0x10004112C, symSize: 0x18 }
  - { offsetInCU: 0x24028, offset: 0x24028, size: 0x8, addend: 0x0, symName: __ZNKSt3__19allocatorImE8max_sizeB8ue170006Ev, symObjAddr: 0x3EDA4, symBinAddr: 0x100041144, symSize: 0x4C }
  - { offsetInCU: 0x2404E, offset: 0x2404E, size: 0x8, addend: 0x0, symName: __ZNKSt3__117__compressed_pairImNS_9allocatorImEEE6secondB8ue170006Ev, symObjAddr: 0x3EDF0, symBinAddr: 0x100041190, symSize: 0x108 }
  - { offsetInCU: 0x24074, offset: 0x24074, size: 0x8, addend: 0x0, symName: __ZNKSt3__122__compressed_pair_elemINS_9allocatorImEELi1ELb1EE5__getB8ue170006Ev, symObjAddr: 0x3EEF8, symBinAddr: 0x100041298, symSize: 0x74 }
  - { offsetInCU: 0x2409A, offset: 0x2409A, size: 0x8, addend: 0x0, symName: __ZNSt12length_errorC1B8ue170006EPKc, symObjAddr: 0x3F020, symBinAddr: 0x1000413C0, symSize: 0x80 }
  - { offsetInCU: 0x240D2, offset: 0x240D2, size: 0x8, addend: 0x0, symName: __ZNSt12length_errorC2B8ue170006EPKc, symObjAddr: 0x3F0A0, symBinAddr: 0x100041440, symSize: 0x128 }
  - { offsetInCU: 0x2410A, offset: 0x2410A, size: 0x8, addend: 0x0, symName: __ZNSt3__19allocatorImE8allocateB8ue170006Em, symObjAddr: 0x3F1C8, symBinAddr: 0x100041568, symSize: 0xCC }
  - { offsetInCU: 0x2413E, offset: 0x2413E, size: 0x8, addend: 0x0, symName: __ZNSt3__117__compressed_pairImNS_9allocatorImEEE6secondB8ue170006Ev, symObjAddr: 0x3F294, symBinAddr: 0x100041634, symSize: 0x108 }
  - { offsetInCU: 0x24164, offset: 0x24164, size: 0x8, addend: 0x0, symName: __ZNSt3__122__compressed_pair_elemINS_9allocatorImEELi1ELb1EE5__getB8ue170006Ev, symObjAddr: 0x3F39C, symBinAddr: 0x10004173C, symSize: 0x74 }
  - { offsetInCU: 0x2418A, offset: 0x2418A, size: 0x8, addend: 0x0, symName: __ZNSt3__117__compressed_pairImNS_9allocatorImEEE5firstB8ue170006Ev, symObjAddr: 0x3F410, symBinAddr: 0x1000417B0, symSize: 0x124 }
  - { offsetInCU: 0x241B0, offset: 0x241B0, size: 0x8, addend: 0x0, symName: __ZNSt3__16vectorIbNS_9allocatorIbEEE11__make_iterB8ue170006Em, symObjAddr: 0x3F838, symBinAddr: 0x100041BD8, symSize: 0x260 }
  - { offsetInCU: 0x241E5, offset: 0x241E5, size: 0x8, addend: 0x0, symName: __ZNSt3__114__bit_iteratorINS_6vectorIbNS_9allocatorIbEEEELb0ELm0EEC1B8ue170006ERKS5_, symObjAddr: 0x40714, symBinAddr: 0x100042AB4, symSize: 0x80 }
  - { offsetInCU: 0x2421E, offset: 0x2421E, size: 0x8, addend: 0x0, symName: __ZNSt3__114__bit_iteratorINS_6vectorIbNS_9allocatorIbEEEELb0ELm0EEC2B8ue170006ERKS5_, symObjAddr: 0x41A64, symBinAddr: 0x100043E04, symSize: 0x234 }
  - { offsetInCU: 0x24257, offset: 0x24257, size: 0x8, addend: 0x0, symName: __ZNSt3__114__bit_iteratorINS_6vectorIbNS_9allocatorIbEEEELb0ELm0EEC1B8ue170006EPmj, symObjAddr: 0x41F00, symBinAddr: 0x1000442A0, symSize: 0x88 }
  - { offsetInCU: 0x2429F, offset: 0x2429F, size: 0x8, addend: 0x0, symName: __ZNSt3__114__bit_iteratorINS_6vectorIbNS_9allocatorIbEEEELb0ELm0EEC2B8ue170006EPmj, symObjAddr: 0x41F88, symBinAddr: 0x100044328, symSize: 0x138 }
  - { offsetInCU: 0x242E7, offset: 0x242E7, size: 0x8, addend: 0x0, symName: __ZNSt3__16vectorIbNS_9allocatorIbEEED2B8ue170006Ev, symObjAddr: 0x420C0, symBinAddr: 0x100044460, symSize: 0x298 }
  - { offsetInCU: 0x24312, offset: 0x24312, size: 0x8, addend: 0x0, symName: __ZNSt3__16vectorIbNS_9allocatorIbEEE16__destroy_vectorC1B8ue170006ERS3_, symObjAddr: 0x42358, symBinAddr: 0x1000446F8, symSize: 0x80 }
  - { offsetInCU: 0x2434B, offset: 0x2434B, size: 0x8, addend: 0x0, symName: __ZNSt3__16vectorIbNS_9allocatorIbEEE16__destroy_vectorclB8ue170006Ev, symObjAddr: 0x423D8, symBinAddr: 0x100044778, symSize: 0x3AC }
  - { offsetInCU: 0x24371, offset: 0x24371, size: 0x8, addend: 0x0, symName: __ZNSt3__16vectorIbNS_9allocatorIbEEE16__destroy_vectorC2B8ue170006ERS3_, symObjAddr: 0x42784, symBinAddr: 0x100044B24, symSize: 0x108 }
  - { offsetInCU: 0x243AA, offset: 0x243AA, size: 0x8, addend: 0x0, symName: __ZNSt3__116allocator_traitsINS_9allocatorImEEE10deallocateB8ue170006ERS2_Pmm, symObjAddr: 0x4288C, symBinAddr: 0x100044C2C, symSize: 0x34 }
  - { offsetInCU: 0x243EC, offset: 0x243EC, size: 0x8, addend: 0x0, symName: __ZNSt3__19allocatorImE10deallocateB8ue170006EPmm, symObjAddr: 0x428C0, symBinAddr: 0x100044C60, symSize: 0x78 }
  - { offsetInCU: 0x2442E, offset: 0x2442E, size: 0x8, addend: 0x0, symName: __ZNSt3__16vectorINS0_IbNS_9allocatorIbEEEENS1_IS3_EEEC2EmRKS3_, symObjAddr: 0x42938, symBinAddr: 0x100044CD8, symSize: 0x574 }
  - { offsetInCU: 0x24494, offset: 0x24494, size: 0x8, addend: 0x0, symName: __ZNSt3__117__compressed_pairIPNS_6vectorIbNS_9allocatorIbEEEENS2_IS4_EEEC1B8ue170006IDnNS_18__default_init_tagEEEOT_OT0_, symObjAddr: 0x42EAC, symBinAddr: 0x10004524C, symSize: 0x88 }
  - { offsetInCU: 0x244EC, offset: 0x244EC, size: 0x8, addend: 0x0, symName: __ZNSt3__16vectorINS0_IbNS_9allocatorIbEEEENS1_IS3_EEE16__destroy_vectorC1B8ue170006ERS5_, symObjAddr: 0x431F0, symBinAddr: 0x100045590, symSize: 0x80 }
  - { offsetInCU: 0x24525, offset: 0x24525, size: 0x8, addend: 0x0, symName: __ZNSt3__16vectorINS0_IbNS_9allocatorIbEEEENS1_IS3_EEE11__vallocateB8ue170006Em, symObjAddr: 0x43270, symBinAddr: 0x100045610, symSize: 0x5F0 }
  - { offsetInCU: 0x2456F, offset: 0x2456F, size: 0x8, addend: 0x0, symName: __ZNSt3__16vectorINS0_IbNS_9allocatorIbEEEENS1_IS3_EEE18__construct_at_endEmRKS3_, symObjAddr: 0x43860, symBinAddr: 0x100045C00, symSize: 0x5F4 }
  - { offsetInCU: 0x245F9, offset: 0x245F9, size: 0x8, addend: 0x0, symName: __ZNSt3__128__exception_guard_exceptionsINS_6vectorINS1_IbNS_9allocatorIbEEEENS2_IS4_EEE16__destroy_vectorEE10__completeB8ue170006Ev, symObjAddr: 0x43E54, symBinAddr: 0x1000461F4, symSize: 0xD8 }
  - { offsetInCU: 0x2461F, offset: 0x2461F, size: 0x8, addend: 0x0, symName: __ZNSt3__128__exception_guard_exceptionsINS_6vectorINS1_IbNS_9allocatorIbEEEENS2_IS4_EEE16__destroy_vectorEED1B8ue170006Ev, symObjAddr: 0x43F2C, symBinAddr: 0x1000462CC, symSize: 0x78 }
  - { offsetInCU: 0x24649, offset: 0x24649, size: 0x8, addend: 0x0, symName: __ZNSt3__117__compressed_pairIPNS_6vectorIbNS_9allocatorIbEEEENS2_IS4_EEEC2B8ue170006IDnNS_18__default_init_tagEEEOT_OT0_, symObjAddr: 0x43FA4, symBinAddr: 0x100046344, symSize: 0x140 }
  - { offsetInCU: 0x246A1, offset: 0x246A1, size: 0x8, addend: 0x0, symName: __ZNSt3__122__compressed_pair_elemIPNS_6vectorIbNS_9allocatorIbEEEELi0ELb0EEC2B8ue170006IDnvEEOT_, symObjAddr: 0x440E4, symBinAddr: 0x100046484, symSize: 0xBC }
  - { offsetInCU: 0x246E3, offset: 0x246E3, size: 0x8, addend: 0x0, symName: __ZNSt3__122__compressed_pair_elemINS_9allocatorINS_6vectorIbNS1_IbEEEEEELi1ELb1EEC2B8ue170006ENS_18__default_init_tagE, symObjAddr: 0x441A0, symBinAddr: 0x100046540, symSize: 0x84 }
  - { offsetInCU: 0x24717, offset: 0x24717, size: 0x8, addend: 0x0, symName: __ZNSt3__19allocatorINS_6vectorIbNS0_IbEEEEEC2B8ue170006Ev, symObjAddr: 0x44224, symBinAddr: 0x1000465C4, symSize: 0x84 }
  - { offsetInCU: 0x24741, offset: 0x24741, size: 0x8, addend: 0x0, symName: __ZNSt3__116__non_trivial_ifILb1ENS_9allocatorINS_6vectorIbNS1_IbEEEEEEEC2B8ue170006Ev, symObjAddr: 0x442A8, symBinAddr: 0x100046648, symSize: 0x54 }
  - { offsetInCU: 0x2476B, offset: 0x2476B, size: 0x8, addend: 0x0, symName: __ZNSt3__128__exception_guard_exceptionsINS_6vectorINS1_IbNS_9allocatorIbEEEENS2_IS4_EEE16__destroy_vectorEEC1B8ue170006ES7_, symObjAddr: 0x442FC, symBinAddr: 0x10004669C, symSize: 0x28C }
  - { offsetInCU: 0x247A8, offset: 0x247A8, size: 0x8, addend: 0x0, symName: __ZNSt3__128__exception_guard_exceptionsINS_6vectorINS1_IbNS_9allocatorIbEEEENS2_IS4_EEE16__destroy_vectorEEC2B8ue170006ES7_, symObjAddr: 0x44588, symBinAddr: 0x100046928, symSize: 0x2BC }
  - { offsetInCU: 0x247E5, offset: 0x247E5, size: 0x8, addend: 0x0, symName: __ZNSt3__16vectorINS0_IbNS_9allocatorIbEEEENS1_IS3_EEE16__destroy_vectorC2B8ue170006ERS5_, symObjAddr: 0x44844, symBinAddr: 0x100046BE4, symSize: 0x108 }
  - { offsetInCU: 0x2481E, offset: 0x2481E, size: 0x8, addend: 0x0, symName: __ZNKSt3__16vectorINS0_IbNS_9allocatorIbEEEENS1_IS3_EEE8max_sizeEv, symObjAddr: 0x4494C, symBinAddr: 0x100046CEC, symSize: 0x3B8 }
  - { offsetInCU: 0x24847, offset: 0x24847, size: 0x8, addend: 0x0, symName: __ZNKSt3__16vectorINS0_IbNS_9allocatorIbEEEENS1_IS3_EEE20__throw_length_errorB8ue170006Ev, symObjAddr: 0x44D04, symBinAddr: 0x1000470A4, symSize: 0x80 }
  - { offsetInCU: 0x2486D, offset: 0x2486D, size: 0x8, addend: 0x0, symName: __ZNSt3__16vectorINS0_IbNS_9allocatorIbEEEENS1_IS3_EEE7__allocB8ue170006Ev, symObjAddr: 0x45010, symBinAddr: 0x1000473B0, symSize: 0xE4 }
  - { offsetInCU: 0x24893, offset: 0x24893, size: 0x8, addend: 0x0, symName: __ZNSt3__16vectorINS0_IbNS_9allocatorIbEEEENS1_IS3_EEE9__end_capB8ue170006Ev, symObjAddr: 0x450F4, symBinAddr: 0x100047494, symSize: 0x100 }
  - { offsetInCU: 0x248B9, offset: 0x248B9, size: 0x8, addend: 0x0, symName: __ZNKSt3__16vectorINS0_IbNS_9allocatorIbEEEENS1_IS3_EEE14__annotate_newB8ue170006Em, symObjAddr: 0x451F4, symBinAddr: 0x100047594, symSize: 0x378 }
  - { offsetInCU: 0x248F8, offset: 0x248F8, size: 0x8, addend: 0x0, symName: __ZNSt3__116allocator_traitsINS_9allocatorINS_6vectorIbNS1_IbEEEEEEE8max_sizeB8ue170006IS5_vEEmRKS5_, symObjAddr: 0x4556C, symBinAddr: 0x10004790C, symSize: 0x24 }
  - { offsetInCU: 0x24926, offset: 0x24926, size: 0x8, addend: 0x0, symName: __ZNKSt3__16vectorINS0_IbNS_9allocatorIbEEEENS1_IS3_EEE7__allocB8ue170006Ev, symObjAddr: 0x45590, symBinAddr: 0x100047930, symSize: 0xE4 }
  - { offsetInCU: 0x2494C, offset: 0x2494C, size: 0x8, addend: 0x0, symName: __ZNKSt3__19allocatorINS_6vectorIbNS0_IbEEEEE8max_sizeB8ue170006Ev, symObjAddr: 0x45674, symBinAddr: 0x100047A14, symSize: 0x50 }
  - { offsetInCU: 0x24972, offset: 0x24972, size: 0x8, addend: 0x0, symName: __ZNKSt3__117__compressed_pairIPNS_6vectorIbNS_9allocatorIbEEEENS2_IS4_EEE6secondB8ue170006Ev, symObjAddr: 0x456C4, symBinAddr: 0x100047A64, symSize: 0x108 }
  - { offsetInCU: 0x24998, offset: 0x24998, size: 0x8, addend: 0x0, symName: __ZNKSt3__122__compressed_pair_elemINS_9allocatorINS_6vectorIbNS1_IbEEEEEELi1ELb1EE5__getB8ue170006Ev, symObjAddr: 0x457CC, symBinAddr: 0x100047B6C, symSize: 0x74 }
  - { offsetInCU: 0x249BE, offset: 0x249BE, size: 0x8, addend: 0x0, symName: __ZNSt3__19allocatorINS_6vectorIbNS0_IbEEEEE8allocateB8ue170006Em, symObjAddr: 0x45840, symBinAddr: 0x100047BE0, symSize: 0xD0 }
  - { offsetInCU: 0x249F2, offset: 0x249F2, size: 0x8, addend: 0x0, symName: __ZNSt3__117__compressed_pairIPNS_6vectorIbNS_9allocatorIbEEEENS2_IS4_EEE6secondB8ue170006Ev, symObjAddr: 0x45910, symBinAddr: 0x100047CB0, symSize: 0x108 }
  - { offsetInCU: 0x24A18, offset: 0x24A18, size: 0x8, addend: 0x0, symName: __ZNSt3__122__compressed_pair_elemINS_9allocatorINS_6vectorIbNS1_IbEEEEEELi1ELb1EE5__getB8ue170006Ev, symObjAddr: 0x45A18, symBinAddr: 0x100047DB8, symSize: 0x74 }
  - { offsetInCU: 0x24A3E, offset: 0x24A3E, size: 0x8, addend: 0x0, symName: __ZNSt3__117__compressed_pairIPNS_6vectorIbNS_9allocatorIbEEEENS2_IS4_EEE5firstB8ue170006Ev, symObjAddr: 0x45A8C, symBinAddr: 0x100047E2C, symSize: 0x124 }
  - { offsetInCU: 0x24A64, offset: 0x24A64, size: 0x8, addend: 0x0, symName: __ZNSt3__122__compressed_pair_elemIPNS_6vectorIbNS_9allocatorIbEEEELi0ELb0EE5__getB8ue170006Ev, symObjAddr: 0x45BB0, symBinAddr: 0x100047F50, symSize: 0xAC }
  - { offsetInCU: 0x24A8A, offset: 0x24A8A, size: 0x8, addend: 0x0, symName: __ZNKSt3__16vectorINS0_IbNS_9allocatorIbEEEENS1_IS3_EEE31__annotate_contiguous_containerEPKvS7_S7_S7_, symObjAddr: 0x45C5C, symBinAddr: 0x100047FFC, symSize: 0x9C }
  - { offsetInCU: 0x24AEC, offset: 0x24AEC, size: 0x8, addend: 0x0, symName: __ZNKSt3__16vectorINS0_IbNS_9allocatorIbEEEENS1_IS3_EEE4dataB8ue170006Ev, symObjAddr: 0x45CF8, symBinAddr: 0x100048098, symSize: 0xB0 }
  - { offsetInCU: 0x24B12, offset: 0x24B12, size: 0x8, addend: 0x0, symName: __ZNKSt3__16vectorINS0_IbNS_9allocatorIbEEEENS1_IS3_EEE8capacityB8ue170006Ev, symObjAddr: 0x45DA8, symBinAddr: 0x100048148, symSize: 0x144 }
  - { offsetInCU: 0x24B38, offset: 0x24B38, size: 0x8, addend: 0x0, symName: __ZNKSt3__16vectorINS0_IbNS_9allocatorIbEEEENS1_IS3_EEE9__end_capB8ue170006Ev, symObjAddr: 0x45F00, symBinAddr: 0x1000482A0, symSize: 0x100 }
  - { offsetInCU: 0x24B5E, offset: 0x24B5E, size: 0x8, addend: 0x0, symName: __ZNKSt3__117__compressed_pairIPNS_6vectorIbNS_9allocatorIbEEEENS2_IS4_EEE5firstB8ue170006Ev, symObjAddr: 0x46000, symBinAddr: 0x1000483A0, symSize: 0x124 }
  - { offsetInCU: 0x24B84, offset: 0x24B84, size: 0x8, addend: 0x0, symName: __ZNKSt3__122__compressed_pair_elemIPNS_6vectorIbNS_9allocatorIbEEEELi0ELb0EE5__getB8ue170006Ev, symObjAddr: 0x46124, symBinAddr: 0x1000484C4, symSize: 0xAC }
  - { offsetInCU: 0x24BC3, offset: 0x24BC3, size: 0x8, addend: 0x0, symName: __ZNSt3__16vectorINS0_IbNS_9allocatorIbEEEENS1_IS3_EEE21_ConstructTransactionC1B8ue170006ERS5_m, symObjAddr: 0x461D0, symBinAddr: 0x100048570, symSize: 0x88 }
  - { offsetInCU: 0x24C0B, offset: 0x24C0B, size: 0x8, addend: 0x0, symName: __ZNSt3__116allocator_traitsINS_9allocatorINS_6vectorIbNS1_IbEEEEEEE9constructB8ue170006IS4_JRKS4_EvEEvRS5_PT_DpOT0_, symObjAddr: 0x46258, symBinAddr: 0x1000485F8, symSize: 0x8C }
  - { offsetInCU: 0x24C62, offset: 0x24C62, size: 0x8, addend: 0x0, symName: __ZNSt3__16vectorINS0_IbNS_9allocatorIbEEEENS1_IS3_EEE21_ConstructTransactionD1B8ue170006Ev, symObjAddr: 0x462E4, symBinAddr: 0x100048684, symSize: 0x78 }
  - { offsetInCU: 0x24C8C, offset: 0x24C8C, size: 0x8, addend: 0x0, symName: __ZNSt3__16vectorINS0_IbNS_9allocatorIbEEEENS1_IS3_EEE21_ConstructTransactionC2B8ue170006ERS5_m, symObjAddr: 0x4635C, symBinAddr: 0x1000486FC, symSize: 0x3E0 }
  - { offsetInCU: 0x24CD4, offset: 0x24CD4, size: 0x8, addend: 0x0, symName: __ZNKSt3__16vectorINS0_IbNS_9allocatorIbEEEENS1_IS3_EEE19__annotate_increaseB8ue170006Em, symObjAddr: 0x4673C, symBinAddr: 0x100048ADC, symSize: 0x46C }
  - { offsetInCU: 0x24D09, offset: 0x24D09, size: 0x8, addend: 0x0, symName: __ZNKSt3__16vectorINS0_IbNS_9allocatorIbEEEENS1_IS3_EEE4sizeB8ue170006Ev, symObjAddr: 0x46BA8, symBinAddr: 0x100048F48, symSize: 0xF8 }
  - { offsetInCU: 0x24D2F, offset: 0x24D2F, size: 0x8, addend: 0x0, symName: __ZNSt3__19allocatorINS_6vectorIbNS0_IbEEEEE9constructB8ue170006IS3_JRKS3_EEEvPT_DpOT0_, symObjAddr: 0x46CA0, symBinAddr: 0x100049040, symSize: 0xEC }
  - { offsetInCU: 0x24D85, offset: 0x24D85, size: 0x8, addend: 0x0, symName: __ZNSt3__16vectorIbNS_9allocatorIbEEEC1ERKS3_, symObjAddr: 0x46D8C, symBinAddr: 0x10004912C, symSize: 0x80 }
  - { offsetInCU: 0x24DC0, offset: 0x24DC0, size: 0x8, addend: 0x0, symName: __ZNSt3__16vectorIbNS_9allocatorIbEEEC2ERKS3_, symObjAddr: 0x46E0C, symBinAddr: 0x1000491AC, symSize: 0x63C }
  - { offsetInCU: 0x24DFD, offset: 0x24DFD, size: 0x8, addend: 0x0, symName: __ZNSt3__116allocator_traitsINS_9allocatorImEEE37select_on_container_copy_constructionB8ue170006IS2_vvEES2_RKS2_, symObjAddr: 0x47448, symBinAddr: 0x1000497E8, symSize: 0x10 }
  - { offsetInCU: 0x24E31, offset: 0x24E31, size: 0x8, addend: 0x0, symName: __ZNSt3__117__compressed_pairImNS_9allocatorImEEEC1B8ue170006IiS2_EEOT_OT0_, symObjAddr: 0x47458, symBinAddr: 0x1000497F8, symSize: 0x88 }
  - { offsetInCU: 0x24E89, offset: 0x24E89, size: 0x8, addend: 0x0, symName: __ZNKSt3__16vectorIbNS_9allocatorIbEEE4sizeB8ue170006Ev, symObjAddr: 0x474E0, symBinAddr: 0x100049880, symSize: 0xB0 }
  - { offsetInCU: 0x24EAF, offset: 0x24EAF, size: 0x8, addend: 0x0, symName: __ZNSt3__16vectorIbNS_9allocatorIbEEE18__construct_at_endINS_14__bit_iteratorIS3_Lb1ELm0EEES6_EEvT_T0_m, symObjAddr: 0x47590, symBinAddr: 0x100049930, symSize: 0x89C }
  - { offsetInCU: 0x24F30, offset: 0x24F30, size: 0x8, addend: 0x0, symName: __ZNKSt3__16vectorIbNS_9allocatorIbEEE5beginB8ue170006Ev, symObjAddr: 0x47E2C, symBinAddr: 0x10004A1CC, symSize: 0x268 }
  - { offsetInCU: 0x24F57, offset: 0x24F57, size: 0x8, addend: 0x0, symName: __ZNKSt3__16vectorIbNS_9allocatorIbEEE3endB8ue170006Ev, symObjAddr: 0x48094, symBinAddr: 0x10004A434, symSize: 0x29C }
  - { offsetInCU: 0x24F7E, offset: 0x24F7E, size: 0x8, addend: 0x0, symName: __ZNSt3__117__compressed_pairImNS_9allocatorImEEEC2B8ue170006IiS2_EEOT_OT0_, symObjAddr: 0x48330, symBinAddr: 0x10004A6D0, symSize: 0x170 }
  - { offsetInCU: 0x24FD6, offset: 0x24FD6, size: 0x8, addend: 0x0, symName: __ZNSt3__122__compressed_pair_elemINS_9allocatorImEELi1ELb1EEC2B8ue170006IS2_vEEOT_, symObjAddr: 0x484A0, symBinAddr: 0x10004A840, symSize: 0x58 }
  - { offsetInCU: 0x2503B, offset: 0x2503B, size: 0x8, addend: 0x0, symName: __ZNKSt3__111__copy_loopINS_17_ClassicAlgPolicyEEclB8ue170006INS_14__bit_iteratorINS_6vectorIbNS_9allocatorIbEEEELb1ELm0EEES9_NS4_IS8_Lb0ELm0EEEEENS_4pairIT_T1_EESC_T0_SD_, symObjAddr: 0x498A4, symBinAddr: 0x10004BC44, symSize: 0x4E8 }
  - { offsetInCU: 0x250CF, offset: 0x250CF, size: 0x8, addend: 0x0, symName: __ZNSt3__14pairINS_14__bit_iteratorINS_6vectorIbNS_9allocatorIbEEEELb1ELm0EEES6_EC1B8ue170006IS6_S6_LPv0EEEOT_OT0_, symObjAddr: 0x4AB2C, symBinAddr: 0x10004CECC, symSize: 0x88 }
  - { offsetInCU: 0x2512D, offset: 0x2512D, size: 0x8, addend: 0x0, symName: __ZNSt3__14pairINS_14__bit_iteratorINS_6vectorIbNS_9allocatorIbEEEELb1ELm0EEES6_EC2B8ue170006IS6_S6_LPv0EEEOT_OT0_, symObjAddr: 0x4ABB4, symBinAddr: 0x10004CF54, symSize: 0xA0 }
  - { offsetInCU: 0x2518B, offset: 0x2518B, size: 0x8, addend: 0x0, symName: __ZNSt3__118__unwrap_iter_implINS_14__bit_iteratorINS_6vectorIbNS_9allocatorIbEEEELb1ELm0EEELb0EE8__unwrapB8ue170006ES6_, symObjAddr: 0x4AC54, symBinAddr: 0x10004CFF4, symSize: 0x274 }
  - { offsetInCU: 0x251B2, offset: 0x251B2, size: 0x8, addend: 0x0, symName: __ZNKSt3__114__bit_iteratorINS_6vectorIbNS_9allocatorIbEEEELb1ELm0EEdeB8ue170006Ev, symObjAddr: 0x4AF8C, symBinAddr: 0x10004D32C, symSize: 0x324 }
  - { offsetInCU: 0x251D9, offset: 0x251D9, size: 0x8, addend: 0x0, symName: __ZNKSt3__114__bit_iteratorINS_6vectorIbNS_9allocatorIbEEEELb0ELm0EEdeB8ue170006Ev, symObjAddr: 0x4B2B0, symBinAddr: 0x10004D650, symSize: 0x324 }
  - { offsetInCU: 0x25200, offset: 0x25200, size: 0x8, addend: 0x0, symName: __ZNSt3__114__bit_iteratorINS_6vectorIbNS_9allocatorIbEEEELb1ELm0EEppB8ue170006Ev, symObjAddr: 0x4B5D4, symBinAddr: 0x10004D974, symSize: 0x2F4 }
  - { offsetInCU: 0x25226, offset: 0x25226, size: 0x8, addend: 0x0, symName: __ZNSt3__114__bit_iteratorINS_6vectorIbNS_9allocatorIbEEEELb0ELm0EEppB8ue170006Ev, symObjAddr: 0x4B8C8, symBinAddr: 0x10004DC68, symSize: 0x2F4 }
  - { offsetInCU: 0x2524C, offset: 0x2524C, size: 0x8, addend: 0x0, symName: __ZNSt3__121__bit_const_referenceINS_6vectorIbNS_9allocatorIbEEEEEC1B8ue170006EPKmm, symObjAddr: 0x4BE2C, symBinAddr: 0x10004E1CC, symSize: 0x88 }
  - { offsetInCU: 0x25292, offset: 0x25292, size: 0x8, addend: 0x0, symName: __ZNSt3__121__bit_const_referenceINS_6vectorIbNS_9allocatorIbEEEEEC2B8ue170006EPKmm, symObjAddr: 0x4BEB4, symBinAddr: 0x10004E254, symSize: 0x110 }
  - { offsetInCU: 0x252D8, offset: 0x252D8, size: 0x8, addend: 0x0, symName: __ZNSt3__115__bit_referenceINS_6vectorIbNS_9allocatorIbEEEELb1EEC1B8ue170006EPmm, symObjAddr: 0x4BFC4, symBinAddr: 0x10004E364, symSize: 0x88 }
  - { offsetInCU: 0x2531E, offset: 0x2531E, size: 0x8, addend: 0x0, symName: __ZNSt3__115__bit_referenceINS_6vectorIbNS_9allocatorIbEEEELb1EEC2B8ue170006EPmm, symObjAddr: 0x4C04C, symBinAddr: 0x10004E3EC, symSize: 0x110 }
  - { offsetInCU: 0x25364, offset: 0x25364, size: 0x8, addend: 0x0, symName: __ZNSt3__118__unwrap_iter_implINS_14__bit_iteratorINS_6vectorIbNS_9allocatorIbEEEELb0ELm0EEELb0EE8__unwrapB8ue170006ES6_, symObjAddr: 0x4C15C, symBinAddr: 0x10004E4FC, symSize: 0xBC }
  - { offsetInCU: 0x2538D, offset: 0x2538D, size: 0x8, addend: 0x0, symName: __ZNSt3__14pairINS_14__bit_iteratorINS_6vectorIbNS_9allocatorIbEEEELb1ELm0EEENS1_IS5_Lb0ELm0EEEEC1B8ue170006IS6_S7_LPv0EEEOT_OT0_, symObjAddr: 0x4C218, symBinAddr: 0x10004E5B8, symSize: 0x88 }
  - { offsetInCU: 0x253EB, offset: 0x253EB, size: 0x8, addend: 0x0, symName: __ZNSt3__14pairINS_14__bit_iteratorINS_6vectorIbNS_9allocatorIbEEEELb1ELm0EEENS1_IS5_Lb0ELm0EEEEC2B8ue170006IS6_S7_LPv0EEEOT_OT0_, symObjAddr: 0x4C2A0, symBinAddr: 0x10004E640, symSize: 0xE8 }
  - { offsetInCU: 0x25449, offset: 0x25449, size: 0x8, addend: 0x0, symName: __ZNSt3__118__unwrap_iter_implINS_14__bit_iteratorINS_6vectorIbNS_9allocatorIbEEEELb1ELm0EEELb0EE8__rewrapB8ue170006ES6_S6_, symObjAddr: 0x4C770, symBinAddr: 0x10004EB10, symSize: 0x2E0 }
  - { offsetInCU: 0x2547E, offset: 0x2547E, size: 0x8, addend: 0x0, symName: __ZNSt3__118__unwrap_iter_implINS_14__bit_iteratorINS_6vectorIbNS_9allocatorIbEEEELb0ELm0EEELb0EE8__rewrapB8ue170006ES6_S6_, symObjAddr: 0x4CA50, symBinAddr: 0x10004EDF0, symSize: 0xC0 }
  - { offsetInCU: 0x254AD, offset: 0x254AD, size: 0x8, addend: 0x0, symName: __ZNKSt3__16vectorIbNS_9allocatorIbEEE11__make_iterB8ue170006Em, symObjAddr: 0x4CB10, symBinAddr: 0x10004EEB0, symSize: 0x3E0 }
  - { offsetInCU: 0x254E4, offset: 0x254E4, size: 0x8, addend: 0x0, symName: __ZNSt3__114__bit_iteratorINS_6vectorIbNS_9allocatorIbEEEELb1ELm0EEC1B8ue170006EPKmj, symObjAddr: 0x4CEF0, symBinAddr: 0x10004F290, symSize: 0x88 }
  - { offsetInCU: 0x2552C, offset: 0x2552C, size: 0x8, addend: 0x0, symName: __ZNSt3__114__bit_iteratorINS_6vectorIbNS_9allocatorIbEEEELb1ELm0EEC2B8ue170006EPKmj, symObjAddr: 0x4CF78, symBinAddr: 0x10004F318, symSize: 0x138 }
  - { offsetInCU: 0x25574, offset: 0x25574, size: 0x8, addend: 0x0, symName: __ZNSt3__16vectorINS0_IbNS_9allocatorIbEEEENS1_IS3_EEE21_ConstructTransactionD2B8ue170006Ev, symObjAddr: 0x4D0B0, symBinAddr: 0x10004F450, symSize: 0x390 }
  - { offsetInCU: 0x2559E, offset: 0x2559E, size: 0x8, addend: 0x0, symName: __ZNKSt3__16vectorINS0_IbNS_9allocatorIbEEEENS1_IS3_EEE17__annotate_shrinkB8ue170006Em, symObjAddr: 0x4D440, symBinAddr: 0x10004F7E0, symSize: 0x378 }
  - { offsetInCU: 0x255D3, offset: 0x255D3, size: 0x8, addend: 0x0, symName: __ZNSt3__128__exception_guard_exceptionsINS_6vectorINS1_IbNS_9allocatorIbEEEENS2_IS4_EEE16__destroy_vectorEED2B8ue170006Ev, symObjAddr: 0x4D7B8, symBinAddr: 0x10004FB58, symSize: 0x17C }
  - { offsetInCU: 0x255FD, offset: 0x255FD, size: 0x8, addend: 0x0, symName: __ZNSt3__16vectorINS0_IbNS_9allocatorIbEEEENS1_IS3_EEE16__destroy_vectorclB8ue170006Ev, symObjAddr: 0x4D934, symBinAddr: 0x10004FCD4, symSize: 0x43C }
  - { offsetInCU: 0x25623, offset: 0x25623, size: 0x8, addend: 0x0, symName: __ZNSt3__16vectorINS0_IbNS_9allocatorIbEEEENS1_IS3_EEE7__clearB8ue170006Ev, symObjAddr: 0x4DD70, symBinAddr: 0x100050110, symSize: 0xB0 }
  - { offsetInCU: 0x25649, offset: 0x25649, size: 0x8, addend: 0x0, symName: __ZNKSt3__16vectorINS0_IbNS_9allocatorIbEEEENS1_IS3_EEE17__annotate_deleteB8ue170006Ev, symObjAddr: 0x4DE20, symBinAddr: 0x1000501C0, symSize: 0x388 }
  - { offsetInCU: 0x2566F, offset: 0x2566F, size: 0x8, addend: 0x0, symName: __ZNSt3__116allocator_traitsINS_9allocatorINS_6vectorIbNS1_IbEEEEEEE10deallocateB8ue170006ERS5_PS4_m, symObjAddr: 0x4E1A8, symBinAddr: 0x100050548, symSize: 0x34 }
  - { offsetInCU: 0x256B1, offset: 0x256B1, size: 0x8, addend: 0x0, symName: __ZNSt3__16vectorINS0_IbNS_9allocatorIbEEEENS1_IS3_EEE22__base_destruct_at_endB8ue170006EPS3_, symObjAddr: 0x4E1DC, symBinAddr: 0x10005057C, symSize: 0x1FC }
  - { offsetInCU: 0x256F5, offset: 0x256F5, size: 0x8, addend: 0x0, symName: __ZNSt3__116allocator_traitsINS_9allocatorINS_6vectorIbNS1_IbEEEEEEE7destroyB8ue170006IS4_vEEvRS5_PT_, symObjAddr: 0x4E3D8, symBinAddr: 0x100050778, symSize: 0x2C }
  - { offsetInCU: 0x25732, offset: 0x25732, size: 0x8, addend: 0x0, symName: __ZNSt3__19allocatorINS_6vectorIbNS0_IbEEEEE7destroyB8ue170006EPS3_, symObjAddr: 0x4E404, symBinAddr: 0x1000507A4, symSize: 0x9C }
  - { offsetInCU: 0x25766, offset: 0x25766, size: 0x8, addend: 0x0, symName: __ZNSt3__19allocatorINS_6vectorIbNS0_IbEEEEE10deallocateB8ue170006EPS3_m, symObjAddr: 0x4E4A0, symBinAddr: 0x100050840, symSize: 0x7C }
  - { offsetInCU: 0x257A8, offset: 0x257A8, size: 0x8, addend: 0x0, symName: __ZNSt3__16vectorINS0_IbNS_9allocatorIbEEEENS1_IS3_EEED2B8ue170006Ev, symObjAddr: 0x4E51C, symBinAddr: 0x1000508BC, symSize: 0x294 }
  - { offsetInCU: 0x257D3, offset: 0x257D3, size: 0x8, addend: 0x0, symName: __ZNSt3__16vectorINS0_INS0_IbNS_9allocatorIbEEEENS1_IS3_EEEENS1_IS5_EEEC2EmRKS5_, symObjAddr: 0x4E7B0, symBinAddr: 0x100050B50, symSize: 0x574 }
  - { offsetInCU: 0x25839, offset: 0x25839, size: 0x8, addend: 0x0, symName: __ZNSt3__16vectorINS0_INS0_IbNS_9allocatorIbEEEENS1_IS3_EEEENS1_IS5_EEE11__vallocateB8ue170006Em, symObjAddr: 0x4EFE0, symBinAddr: 0x100051380, symSize: 0x5F0 }
  - { offsetInCU: 0x25883, offset: 0x25883, size: 0x8, addend: 0x0, symName: __ZNSt3__16vectorINS0_INS0_IbNS_9allocatorIbEEEENS1_IS3_EEEENS1_IS5_EEE18__construct_at_endEmRKS5_, symObjAddr: 0x4F5D0, symBinAddr: 0x100051970, symSize: 0x5F4 }
  - { offsetInCU: 0x2590D, offset: 0x2590D, size: 0x8, addend: 0x0, symName: __ZNSt3__128__exception_guard_exceptionsINS_6vectorINS1_INS1_IbNS_9allocatorIbEEEENS2_IS4_EEEENS2_IS6_EEE16__destroy_vectorEE10__completeB8ue170006Ev, symObjAddr: 0x4FBC4, symBinAddr: 0x100051F64, symSize: 0xD8 }
  - { offsetInCU: 0x25933, offset: 0x25933, size: 0x8, addend: 0x0, symName: __ZNSt3__128__exception_guard_exceptionsINS_6vectorINS1_INS1_IbNS_9allocatorIbEEEENS2_IS4_EEEENS2_IS6_EEE16__destroy_vectorEED1B8ue170006Ev, symObjAddr: 0x4FC9C, symBinAddr: 0x10005203C, symSize: 0x78 }
  - { offsetInCU: 0x2595D, offset: 0x2595D, size: 0x8, addend: 0x0, symName: __ZNSt3__128__exception_guard_exceptionsINS_6vectorINS1_INS1_IbNS_9allocatorIbEEEENS2_IS4_EEEENS2_IS6_EEE16__destroy_vectorEEC1B8ue170006ES9_, symObjAddr: 0x4FD14, symBinAddr: 0x1000520B4, symSize: 0x28C }
  - { offsetInCU: 0x2599A, offset: 0x2599A, size: 0x8, addend: 0x0, symName: __ZNSt3__128__exception_guard_exceptionsINS_6vectorINS1_INS1_IbNS_9allocatorIbEEEENS2_IS4_EEEENS2_IS6_EEE16__destroy_vectorEEC2B8ue170006ES9_, symObjAddr: 0x4FFA0, symBinAddr: 0x100052340, symSize: 0x2BC }
  - { offsetInCU: 0x259D7, offset: 0x259D7, size: 0x8, addend: 0x0, symName: __ZNKSt3__16vectorINS0_INS0_IbNS_9allocatorIbEEEENS1_IS3_EEEENS1_IS5_EEE8max_sizeEv, symObjAddr: 0x5025C, symBinAddr: 0x1000525FC, symSize: 0x3B8 }
  - { offsetInCU: 0x25A00, offset: 0x25A00, size: 0x8, addend: 0x0, symName: __ZNKSt3__16vectorINS0_INS0_IbNS_9allocatorIbEEEENS1_IS3_EEEENS1_IS5_EEE20__throw_length_errorB8ue170006Ev, symObjAddr: 0x50614, symBinAddr: 0x1000529B4, symSize: 0x80 }
  - { offsetInCU: 0x25A26, offset: 0x25A26, size: 0x8, addend: 0x0, symName: __ZNSt3__16vectorINS0_INS0_IbNS_9allocatorIbEEEENS1_IS3_EEEENS1_IS5_EEE9__end_capB8ue170006Ev, symObjAddr: 0x50920, symBinAddr: 0x100052CC0, symSize: 0x100 }
  - { offsetInCU: 0x25A4C, offset: 0x25A4C, size: 0x8, addend: 0x0, symName: __ZNKSt3__16vectorINS0_INS0_IbNS_9allocatorIbEEEENS1_IS3_EEEENS1_IS5_EEE14__annotate_newB8ue170006Em, symObjAddr: 0x50A20, symBinAddr: 0x100052DC0, symSize: 0x378 }
  - { offsetInCU: 0x25A8B, offset: 0x25A8B, size: 0x8, addend: 0x0, symName: __ZNSt3__116allocator_traitsINS_9allocatorINS_6vectorINS2_IbNS1_IbEEEENS1_IS4_EEEEEEE8max_sizeB8ue170006IS7_vEEmRKS7_, symObjAddr: 0x50D98, symBinAddr: 0x100053138, symSize: 0x24 }
  - { offsetInCU: 0x25AB9, offset: 0x25AB9, size: 0x8, addend: 0x0, symName: __ZNKSt3__16vectorINS0_INS0_IbNS_9allocatorIbEEEENS1_IS3_EEEENS1_IS5_EEE7__allocB8ue170006Ev, symObjAddr: 0x50DBC, symBinAddr: 0x10005315C, symSize: 0xE4 }
  - { offsetInCU: 0x25ADF, offset: 0x25ADF, size: 0x8, addend: 0x0, symName: __ZNKSt3__19allocatorINS_6vectorINS1_IbNS0_IbEEEENS0_IS3_EEEEE8max_sizeB8ue170006Ev, symObjAddr: 0x50EA0, symBinAddr: 0x100053240, symSize: 0x50 }
  - { offsetInCU: 0x25B05, offset: 0x25B05, size: 0x8, addend: 0x0, symName: __ZNKSt3__117__compressed_pairIPNS_6vectorINS1_IbNS_9allocatorIbEEEENS2_IS4_EEEENS2_IS6_EEE6secondB8ue170006Ev, symObjAddr: 0x50EF0, symBinAddr: 0x100053290, symSize: 0x108 }
  - { offsetInCU: 0x25B2B, offset: 0x25B2B, size: 0x8, addend: 0x0, symName: __ZNKSt3__122__compressed_pair_elemINS_9allocatorINS_6vectorINS2_IbNS1_IbEEEENS1_IS4_EEEEEELi1ELb1EE5__getB8ue170006Ev, symObjAddr: 0x50FF8, symBinAddr: 0x100053398, symSize: 0x74 }
  - { offsetInCU: 0x25B51, offset: 0x25B51, size: 0x8, addend: 0x0, symName: __ZNSt3__19allocatorINS_6vectorINS1_IbNS0_IbEEEENS0_IS3_EEEEE8allocateB8ue170006Em, symObjAddr: 0x5106C, symBinAddr: 0x10005340C, symSize: 0xD0 }
  - { offsetInCU: 0x25B85, offset: 0x25B85, size: 0x8, addend: 0x0, symName: __ZNSt3__117__compressed_pairIPNS_6vectorINS1_IbNS_9allocatorIbEEEENS2_IS4_EEEENS2_IS6_EEE5firstB8ue170006Ev, symObjAddr: 0x5113C, symBinAddr: 0x1000534DC, symSize: 0x124 }
  - { offsetInCU: 0x25BAB, offset: 0x25BAB, size: 0x8, addend: 0x0, symName: __ZNSt3__122__compressed_pair_elemIPNS_6vectorINS1_IbNS_9allocatorIbEEEENS2_IS4_EEEELi0ELb0EE5__getB8ue170006Ev, symObjAddr: 0x51260, symBinAddr: 0x100053600, symSize: 0xAC }
  - { offsetInCU: 0x25BEA, offset: 0x25BEA, size: 0x8, addend: 0x0, symName: __ZNSt3__16vectorINS0_INS0_IbNS_9allocatorIbEEEENS1_IS3_EEEENS1_IS5_EEE21_ConstructTransactionC1B8ue170006ERS7_m, symObjAddr: 0x5130C, symBinAddr: 0x1000536AC, symSize: 0x88 }
  - { offsetInCU: 0x25C32, offset: 0x25C32, size: 0x8, addend: 0x0, symName: __ZNSt3__116allocator_traitsINS_9allocatorINS_6vectorINS2_IbNS1_IbEEEENS1_IS4_EEEEEEE9constructB8ue170006IS6_JRKS6_EvEEvRS7_PT_DpOT0_, symObjAddr: 0x51394, symBinAddr: 0x100053734, symSize: 0x8C }
  - { offsetInCU: 0x25C89, offset: 0x25C89, size: 0x8, addend: 0x0, symName: __ZNSt3__16vectorINS0_INS0_IbNS_9allocatorIbEEEENS1_IS3_EEEENS1_IS5_EEE21_ConstructTransactionD1B8ue170006Ev, symObjAddr: 0x51420, symBinAddr: 0x1000537C0, symSize: 0x78 }
  - { offsetInCU: 0x25CB3, offset: 0x25CB3, size: 0x8, addend: 0x0, symName: __ZNSt3__16vectorINS0_INS0_IbNS_9allocatorIbEEEENS1_IS3_EEEENS1_IS5_EEE21_ConstructTransactionC2B8ue170006ERS7_m, symObjAddr: 0x51498, symBinAddr: 0x100053838, symSize: 0x3E0 }
  - { offsetInCU: 0x25CFB, offset: 0x25CFB, size: 0x8, addend: 0x0, symName: __ZNKSt3__16vectorINS0_INS0_IbNS_9allocatorIbEEEENS1_IS3_EEEENS1_IS5_EEE19__annotate_increaseB8ue170006Em, symObjAddr: 0x51878, symBinAddr: 0x100053C18, symSize: 0x46C }
  - { offsetInCU: 0x25D30, offset: 0x25D30, size: 0x8, addend: 0x0, symName: __ZNSt3__19allocatorINS_6vectorINS1_IbNS0_IbEEEENS0_IS3_EEEEE9constructB8ue170006IS5_JRKS5_EEEvPT_DpOT0_, symObjAddr: 0x51CE4, symBinAddr: 0x100054084, symSize: 0xEC }
  - { offsetInCU: 0x25D86, offset: 0x25D86, size: 0x8, addend: 0x0, symName: __ZNSt3__16vectorINS0_IbNS_9allocatorIbEEEENS1_IS3_EEEC1ERKS5_, symObjAddr: 0x51DD0, symBinAddr: 0x100054170, symSize: 0x80 }
  - { offsetInCU: 0x25DC1, offset: 0x25DC1, size: 0x8, addend: 0x0, symName: __ZNSt3__16vectorINS0_IbNS_9allocatorIbEEEENS1_IS3_EEEC2ERKS5_, symObjAddr: 0x51E50, symBinAddr: 0x1000541F0, symSize: 0x4C0 }
  - { offsetInCU: 0x25DFE, offset: 0x25DFE, size: 0x8, addend: 0x0, symName: __ZNSt3__116allocator_traitsINS_9allocatorINS_6vectorIbNS1_IbEEEEEEE37select_on_container_copy_constructionB8ue170006IS5_vvEES5_RKS5_, symObjAddr: 0x52310, symBinAddr: 0x1000546B0, symSize: 0x10 }
  - { offsetInCU: 0x25E32, offset: 0x25E32, size: 0x8, addend: 0x0, symName: __ZNSt3__117__compressed_pairIPNS_6vectorIbNS_9allocatorIbEEEENS2_IS4_EEEC1B8ue170006IDnS6_EEOT_OT0_, symObjAddr: 0x52320, symBinAddr: 0x1000546C0, symSize: 0x88 }
  - { offsetInCU: 0x25E8A, offset: 0x25E8A, size: 0x8, addend: 0x0, symName: __ZNSt3__16vectorINS0_IbNS_9allocatorIbEEEENS1_IS3_EEE16__init_with_sizeB8ue170006IPS3_S7_EEvT_T0_m, symObjAddr: 0x523A8, symBinAddr: 0x100054748, symSize: 0x3EC }
  - { offsetInCU: 0x25F06, offset: 0x25F06, size: 0x8, addend: 0x0, symName: __ZNSt3__117__compressed_pairIPNS_6vectorIbNS_9allocatorIbEEEENS2_IS4_EEEC2B8ue170006IDnS6_EEOT_OT0_, symObjAddr: 0x52794, symBinAddr: 0x100054B34, symSize: 0x170 }
  - { offsetInCU: 0x25F5E, offset: 0x25F5E, size: 0x8, addend: 0x0, symName: __ZNSt3__122__compressed_pair_elemINS_9allocatorINS_6vectorIbNS1_IbEEEEEELi1ELb1EEC2B8ue170006IS5_vEEOT_, symObjAddr: 0x52904, symBinAddr: 0x100054CA4, symSize: 0x58 }
  - { offsetInCU: 0x25FA0, offset: 0x25FA0, size: 0x8, addend: 0x0, symName: __ZNSt3__16vectorINS0_IbNS_9allocatorIbEEEENS1_IS3_EEE18__construct_at_endIPS3_S7_EEvT_T0_m, symObjAddr: 0x5295C, symBinAddr: 0x100054CFC, symSize: 0x494 }
  - { offsetInCU: 0x2603C, offset: 0x2603C, size: 0x8, addend: 0x0, symName: __ZNSt3__14pairIPNS_6vectorIbNS_9allocatorIbEEEES5_EC1B8ue170006IS5_S5_LPv0EEEOT_OT0_, symObjAddr: 0x53E6C, symBinAddr: 0x10005620C, symSize: 0x88 }
  - { offsetInCU: 0x2609A, offset: 0x2609A, size: 0x8, addend: 0x0, symName: __ZNSt3__14pairIPNS_6vectorIbNS_9allocatorIbEEEES5_EC2B8ue170006IS5_S5_LPv0EEEOT_OT0_, symObjAddr: 0x53EF4, symBinAddr: 0x100056294, symSize: 0x210 }
  - { offsetInCU: 0x260F8, offset: 0x260F8, size: 0x8, addend: 0x0, symName: __ZNSt3__129_AllocatorDestroyRangeReverseINS_9allocatorINS_6vectorIbNS1_IbEEEEEEPS4_EC1B8ue170006ERS5_RS6_S9_, symObjAddr: 0x54340, symBinAddr: 0x1000566E0, symSize: 0x90 }
  - { offsetInCU: 0x2614F, offset: 0x2614F, size: 0x8, addend: 0x0, symName: __ZNSt3__116allocator_traitsINS_9allocatorINS_6vectorIbNS1_IbEEEEEEE9constructB8ue170006IS4_JRS4_EvEEvRS5_PT_DpOT0_, symObjAddr: 0x543D0, symBinAddr: 0x100056770, symSize: 0x8C }
  - { offsetInCU: 0x261A6, offset: 0x261A6, size: 0x8, addend: 0x0, symName: __ZNSt3__128__exception_guard_exceptionsINS_29_AllocatorDestroyRangeReverseINS_9allocatorINS_6vectorIbNS2_IbEEEEEEPS5_EEE10__completeB8ue170006Ev, symObjAddr: 0x5445C, symBinAddr: 0x1000567FC, symSize: 0xD8 }
  - { offsetInCU: 0x261CC, offset: 0x261CC, size: 0x8, addend: 0x0, symName: __ZNSt3__128__exception_guard_exceptionsINS_29_AllocatorDestroyRangeReverseINS_9allocatorINS_6vectorIbNS2_IbEEEEEEPS5_EEED1B8ue170006Ev, symObjAddr: 0x54534, symBinAddr: 0x1000568D4, symSize: 0x78 }
  - { offsetInCU: 0x261F6, offset: 0x261F6, size: 0x8, addend: 0x0, symName: __ZNSt3__128__exception_guard_exceptionsINS_29_AllocatorDestroyRangeReverseINS_9allocatorINS_6vectorIbNS2_IbEEEEEEPS5_EEEC1B8ue170006ES8_, symObjAddr: 0x545AC, symBinAddr: 0x10005694C, symSize: 0x84 }
  - { offsetInCU: 0x2622F, offset: 0x2622F, size: 0x8, addend: 0x0, symName: __ZNSt3__128__exception_guard_exceptionsINS_29_AllocatorDestroyRangeReverseINS_9allocatorINS_6vectorIbNS2_IbEEEEEEPS5_EEEC2B8ue170006ES8_, symObjAddr: 0x54630, symBinAddr: 0x1000569D0, symSize: 0xF8 }
  - { offsetInCU: 0x26268, offset: 0x26268, size: 0x8, addend: 0x0, symName: __ZNSt3__129_AllocatorDestroyRangeReverseINS_9allocatorINS_6vectorIbNS1_IbEEEEEEPS4_EC2B8ue170006ERS5_RS6_S9_, symObjAddr: 0x54728, symBinAddr: 0x100056AC8, symSize: 0x20C }
  - { offsetInCU: 0x262BF, offset: 0x262BF, size: 0x8, addend: 0x0, symName: __ZNSt3__19allocatorINS_6vectorIbNS0_IbEEEEE9constructB8ue170006IS3_JRS3_EEEvPT_DpOT0_, symObjAddr: 0x54934, symBinAddr: 0x100056CD4, symSize: 0xEC }
  - { offsetInCU: 0x26315, offset: 0x26315, size: 0x8, addend: 0x0, symName: __ZNSt3__128__exception_guard_exceptionsINS_29_AllocatorDestroyRangeReverseINS_9allocatorINS_6vectorIbNS2_IbEEEEEEPS5_EEED2B8ue170006Ev, symObjAddr: 0x54A20, symBinAddr: 0x100056DC0, symSize: 0x17C }
  - { offsetInCU: 0x2633F, offset: 0x2633F, size: 0x8, addend: 0x0, symName: __ZNKSt3__129_AllocatorDestroyRangeReverseINS_9allocatorINS_6vectorIbNS1_IbEEEEEEPS4_EclB8ue170006Ev, symObjAddr: 0x54B9C, symBinAddr: 0x100056F3C, symSize: 0x40C }
  - { offsetInCU: 0x26366, offset: 0x26366, size: 0x8, addend: 0x0, symName: __ZNSt3__116reverse_iteratorIPNS_6vectorIbNS_9allocatorIbEEEEEC1B8ue170006ES5_, symObjAddr: 0x55284, symBinAddr: 0x100057624, symSize: 0x80 }
  - { offsetInCU: 0x2639E, offset: 0x2639E, size: 0x8, addend: 0x0, symName: __ZNSt3__116reverse_iteratorIPNS_6vectorIbNS_9allocatorIbEEEEEppB8ue170006Ev, symObjAddr: 0x5540C, symBinAddr: 0x1000577AC, symSize: 0x1B0 }
  - { offsetInCU: 0x263C4, offset: 0x263C4, size: 0x8, addend: 0x0, symName: __ZNKSt3__116reverse_iteratorIPNS_6vectorIbNS_9allocatorIbEEEEE4baseB8ue170006Ev, symObjAddr: 0x555BC, symBinAddr: 0x10005795C, symSize: 0xB0 }
  - { offsetInCU: 0x263EF, offset: 0x263EF, size: 0x8, addend: 0x0, symName: __ZNSt3__119__to_address_helperINS_16reverse_iteratorIPNS_6vectorIbNS_9allocatorIbEEEEEEvE6__callB8ue170006ERKS7_, symObjAddr: 0x5566C, symBinAddr: 0x100057A0C, symSize: 0x70 }
  - { offsetInCU: 0x26412, offset: 0x26412, size: 0x8, addend: 0x0, symName: __ZNKSt3__116reverse_iteratorIPNS_6vectorIbNS_9allocatorIbEEEEEptB8ue170006Ev, symObjAddr: 0x556DC, symBinAddr: 0x100057A7C, symSize: 0x6C }
  - { offsetInCU: 0x26438, offset: 0x26438, size: 0x8, addend: 0x0, symName: __ZNKSt3__116reverse_iteratorIPNS_6vectorIbNS_9allocatorIbEEEEEdeB8ue170006Ev, symObjAddr: 0x55748, symBinAddr: 0x100057AE8, symSize: 0x184 }
  - { offsetInCU: 0x2646C, offset: 0x2646C, size: 0x8, addend: 0x0, symName: __ZNSt3__116reverse_iteratorIPNS_6vectorIbNS_9allocatorIbEEEEEC2B8ue170006ES5_, symObjAddr: 0x558CC, symBinAddr: 0x100057C6C, symSize: 0x10C }
  - { offsetInCU: 0x264A4, offset: 0x264A4, size: 0x8, addend: 0x0, symName: __ZNSt3__118__unwrap_iter_implIPNS_6vectorIbNS_9allocatorIbEEEELb1EE8__unwrapB8ue170006ES5_, symObjAddr: 0x559D8, symBinAddr: 0x100057D78, symSize: 0x24 }
  - { offsetInCU: 0x264C7, offset: 0x264C7, size: 0x8, addend: 0x0, symName: __ZNSt3__118__unwrap_iter_implIPNS_6vectorIbNS_9allocatorIbEEEELb1EE8__rewrapB8ue170006ES5_S5_, symObjAddr: 0x559FC, symBinAddr: 0x100057D9C, symSize: 0x140 }
  - { offsetInCU: 0x264F8, offset: 0x264F8, size: 0x8, addend: 0x0, symName: __ZNSt3__16vectorINS0_INS0_IbNS_9allocatorIbEEEENS1_IS3_EEEENS1_IS5_EEE21_ConstructTransactionD2B8ue170006Ev, symObjAddr: 0x55B3C, symBinAddr: 0x100057EDC, symSize: 0x390 }
  - { offsetInCU: 0x26522, offset: 0x26522, size: 0x8, addend: 0x0, symName: __ZNKSt3__16vectorINS0_INS0_IbNS_9allocatorIbEEEENS1_IS3_EEEENS1_IS5_EEE17__annotate_shrinkB8ue170006Em, symObjAddr: 0x55ECC, symBinAddr: 0x10005826C, symSize: 0x378 }
  - { offsetInCU: 0x26557, offset: 0x26557, size: 0x8, addend: 0x0, symName: __ZNSt3__128__exception_guard_exceptionsINS_6vectorINS1_INS1_IbNS_9allocatorIbEEEENS2_IS4_EEEENS2_IS6_EEE16__destroy_vectorEED2B8ue170006Ev, symObjAddr: 0x56244, symBinAddr: 0x1000585E4, symSize: 0x168 }
  - { offsetInCU: 0x26581, offset: 0x26581, size: 0x8, addend: 0x0, symName: __ZNSt3__16vectorINS0_INS0_IbNS_9allocatorIbEEEENS1_IS3_EEEENS1_IS5_EEE13__move_assignERS7_NS_17integral_constantIbLb1EEE, symObjAddr: 0x563AC, symBinAddr: 0x10005874C, symSize: 0x4FC }
  - { offsetInCU: 0x265C3, offset: 0x265C3, size: 0x8, addend: 0x0, symName: __ZNSt3__16vectorINS0_INS0_IbNS_9allocatorIbEEEENS1_IS3_EEEENS1_IS5_EEE13__vdeallocateEv, symObjAddr: 0x568A8, symBinAddr: 0x100058C48, symSize: 0x244 }
  - { offsetInCU: 0x265EB, offset: 0x265EB, size: 0x8, addend: 0x0, symName: __ZNSt3__16vectorINS0_INS0_IbNS_9allocatorIbEEEENS1_IS3_EEEENS1_IS5_EEE19__move_assign_allocB8ue170006ERS7_, symObjAddr: 0x56AEC, symBinAddr: 0x100058E8C, symSize: 0xBC }
  - { offsetInCU: 0x26620, offset: 0x26620, size: 0x8, addend: 0x0, symName: __ZNSt3__16vectorINS0_INS0_IbNS_9allocatorIbEEEENS1_IS3_EEEENS1_IS5_EEE5clearB8ue170006Ev, symObjAddr: 0x56BA8, symBinAddr: 0x100058F48, symSize: 0x88 }
  - { offsetInCU: 0x26655, offset: 0x26655, size: 0x8, addend: 0x0, symName: __ZNSt3__16vectorINS0_INS0_IbNS_9allocatorIbEEEENS1_IS3_EEEENS1_IS5_EEE19__move_assign_allocB8ue170006ERS7_NS_17integral_constantIbLb1EEE, symObjAddr: 0x56C30, symBinAddr: 0x100058FD0, symSize: 0xA4 }
  - { offsetInCU: 0x26695, offset: 0x26695, size: 0x8, addend: 0x0, symName: __ZNSt3__16vectorI8PositionNS_9allocatorIS1_EEEC2EmRKS1_, symObjAddr: 0x56CD4, symBinAddr: 0x100059074, symSize: 0x574 }
  - { offsetInCU: 0x266FB, offset: 0x266FB, size: 0x8, addend: 0x0, symName: __ZNSt3__16vectorI8PositionNS_9allocatorIS1_EEE11__vallocateB8ue170006Em, symObjAddr: 0x57504, symBinAddr: 0x1000598A4, symSize: 0x5F0 }
  - { offsetInCU: 0x26745, offset: 0x26745, size: 0x8, addend: 0x0, symName: __ZNSt3__16vectorI8PositionNS_9allocatorIS1_EEE18__construct_at_endEmRKS1_, symObjAddr: 0x57AF4, symBinAddr: 0x100059E94, symSize: 0x5F4 }
  - { offsetInCU: 0x267CF, offset: 0x267CF, size: 0x8, addend: 0x0, symName: __ZNSt3__128__exception_guard_exceptionsINS_6vectorI8PositionNS_9allocatorIS2_EEE16__destroy_vectorEE10__completeB8ue170006Ev, symObjAddr: 0x580E8, symBinAddr: 0x10005A488, symSize: 0xD8 }
  - { offsetInCU: 0x267F5, offset: 0x267F5, size: 0x8, addend: 0x0, symName: __ZNSt3__128__exception_guard_exceptionsINS_6vectorI8PositionNS_9allocatorIS2_EEE16__destroy_vectorEED1B8ue170006Ev, symObjAddr: 0x581C0, symBinAddr: 0x10005A560, symSize: 0x78 }
  - { offsetInCU: 0x2681F, offset: 0x2681F, size: 0x8, addend: 0x0, symName: __ZNSt3__128__exception_guard_exceptionsINS_6vectorI8PositionNS_9allocatorIS2_EEE16__destroy_vectorEEC1B8ue170006ES6_, symObjAddr: 0x58238, symBinAddr: 0x10005A5D8, symSize: 0x28C }
  - { offsetInCU: 0x2685C, offset: 0x2685C, size: 0x8, addend: 0x0, symName: __ZNSt3__128__exception_guard_exceptionsINS_6vectorI8PositionNS_9allocatorIS2_EEE16__destroy_vectorEEC2B8ue170006ES6_, symObjAddr: 0x584C4, symBinAddr: 0x10005A864, symSize: 0x2BC }
  - { offsetInCU: 0x26899, offset: 0x26899, size: 0x8, addend: 0x0, symName: __ZNKSt3__16vectorI8PositionNS_9allocatorIS1_EEE8max_sizeEv, symObjAddr: 0x58780, symBinAddr: 0x10005AB20, symSize: 0x3B8 }
  - { offsetInCU: 0x268C2, offset: 0x268C2, size: 0x8, addend: 0x0, symName: __ZNKSt3__16vectorI8PositionNS_9allocatorIS1_EEE20__throw_length_errorB8ue170006Ev, symObjAddr: 0x58B38, symBinAddr: 0x10005AED8, symSize: 0x80 }
  - { offsetInCU: 0x268E8, offset: 0x268E8, size: 0x8, addend: 0x0, symName: __ZNSt3__16vectorI8PositionNS_9allocatorIS1_EEE9__end_capB8ue170006Ev, symObjAddr: 0x58E44, symBinAddr: 0x10005B1E4, symSize: 0x100 }
  - { offsetInCU: 0x2690E, offset: 0x2690E, size: 0x8, addend: 0x0, symName: __ZNKSt3__16vectorI8PositionNS_9allocatorIS1_EEE14__annotate_newB8ue170006Em, symObjAddr: 0x58F44, symBinAddr: 0x10005B2E4, symSize: 0x378 }
  - { offsetInCU: 0x26943, offset: 0x26943, size: 0x8, addend: 0x0, symName: __ZNKSt3__16vectorI8PositionNS_9allocatorIS1_EEE7__allocB8ue170006Ev, symObjAddr: 0x592BC, symBinAddr: 0x10005B65C, symSize: 0xE4 }
  - { offsetInCU: 0x26969, offset: 0x26969, size: 0x8, addend: 0x0, symName: __ZNKSt3__117__compressed_pairIP8PositionNS_9allocatorIS1_EEE6secondB8ue170006Ev, symObjAddr: 0x593A0, symBinAddr: 0x10005B740, symSize: 0x108 }
  - { offsetInCU: 0x2698F, offset: 0x2698F, size: 0x8, addend: 0x0, symName: __ZNKSt3__122__compressed_pair_elemINS_9allocatorI8PositionEELi1ELb1EE5__getB8ue170006Ev, symObjAddr: 0x594A8, symBinAddr: 0x10005B848, symSize: 0x74 }
  - { offsetInCU: 0x269B5, offset: 0x269B5, size: 0x8, addend: 0x0, symName: __ZNSt3__117__compressed_pairIP8PositionNS_9allocatorIS1_EEE5firstB8ue170006Ev, symObjAddr: 0x5951C, symBinAddr: 0x10005B8BC, symSize: 0x124 }
  - { offsetInCU: 0x269F4, offset: 0x269F4, size: 0x8, addend: 0x0, symName: __ZNSt3__16vectorI8PositionNS_9allocatorIS1_EEE21_ConstructTransactionC1B8ue170006ERS4_m, symObjAddr: 0x59640, symBinAddr: 0x10005B9E0, symSize: 0x88 }
  - { offsetInCU: 0x26A3C, offset: 0x26A3C, size: 0x8, addend: 0x0, symName: __ZNSt3__16vectorI8PositionNS_9allocatorIS1_EEE21_ConstructTransactionD1B8ue170006Ev, symObjAddr: 0x596C8, symBinAddr: 0x10005BA68, symSize: 0x78 }
  - { offsetInCU: 0x26A66, offset: 0x26A66, size: 0x8, addend: 0x0, symName: __ZNSt3__16vectorI8PositionNS_9allocatorIS1_EEE21_ConstructTransactionC2B8ue170006ERS4_m, symObjAddr: 0x59740, symBinAddr: 0x10005BAE0, symSize: 0x3E0 }
  - { offsetInCU: 0x26AAE, offset: 0x26AAE, size: 0x8, addend: 0x0, symName: __ZNKSt3__16vectorI8PositionNS_9allocatorIS1_EEE19__annotate_increaseB8ue170006Em, symObjAddr: 0x59B20, symBinAddr: 0x10005BEC0, symSize: 0x46C }
  - { offsetInCU: 0x26AE3, offset: 0x26AE3, size: 0x8, addend: 0x0, symName: __ZNSt3__16vectorI8PositionNS_9allocatorIS1_EEE21_ConstructTransactionD2B8ue170006Ev, symObjAddr: 0x59F8C, symBinAddr: 0x10005C32C, symSize: 0x390 }
  - { offsetInCU: 0x26B0D, offset: 0x26B0D, size: 0x8, addend: 0x0, symName: __ZNKSt3__16vectorI8PositionNS_9allocatorIS1_EEE17__annotate_shrinkB8ue170006Em, symObjAddr: 0x5A31C, symBinAddr: 0x10005C6BC, symSize: 0x378 }
  - { offsetInCU: 0x26B42, offset: 0x26B42, size: 0x8, addend: 0x0, symName: __ZNSt3__128__exception_guard_exceptionsINS_6vectorI8PositionNS_9allocatorIS2_EEE16__destroy_vectorEED2B8ue170006Ev, symObjAddr: 0x5A694, symBinAddr: 0x10005CA34, symSize: 0x168 }
  - { offsetInCU: 0x26B6C, offset: 0x26B6C, size: 0x8, addend: 0x0, symName: __ZNSt3__16vectorINS0_I8PositionNS_9allocatorIS1_EEEENS2_IS4_EEEC2EmRKS4_, symObjAddr: 0x5A7FC, symBinAddr: 0x10005CB9C, symSize: 0x574 }
  - { offsetInCU: 0x26BD2, offset: 0x26BD2, size: 0x8, addend: 0x0, symName: __ZNSt3__117__compressed_pairIPNS_6vectorI8PositionNS_9allocatorIS2_EEEENS3_IS5_EEEC1B8ue170006IDnNS_18__default_init_tagEEEOT_OT0_, symObjAddr: 0x5AD70, symBinAddr: 0x10005D110, symSize: 0x88 }
  - { offsetInCU: 0x26C2A, offset: 0x26C2A, size: 0x8, addend: 0x0, symName: __ZNSt3__16vectorINS0_I8PositionNS_9allocatorIS1_EEEENS2_IS4_EEE16__destroy_vectorC1B8ue170006ERS6_, symObjAddr: 0x5B0B4, symBinAddr: 0x10005D454, symSize: 0x80 }
  - { offsetInCU: 0x26C63, offset: 0x26C63, size: 0x8, addend: 0x0, symName: __ZNSt3__16vectorINS0_I8PositionNS_9allocatorIS1_EEEENS2_IS4_EEE11__vallocateB8ue170006Em, symObjAddr: 0x5B134, symBinAddr: 0x10005D4D4, symSize: 0x5F0 }
  - { offsetInCU: 0x26CAD, offset: 0x26CAD, size: 0x8, addend: 0x0, symName: __ZNSt3__16vectorINS0_I8PositionNS_9allocatorIS1_EEEENS2_IS4_EEE18__construct_at_endEmRKS4_, symObjAddr: 0x5B724, symBinAddr: 0x10005DAC4, symSize: 0x5F4 }
  - { offsetInCU: 0x26D37, offset: 0x26D37, size: 0x8, addend: 0x0, symName: __ZNSt3__128__exception_guard_exceptionsINS_6vectorINS1_I8PositionNS_9allocatorIS2_EEEENS3_IS5_EEE16__destroy_vectorEE10__completeB8ue170006Ev, symObjAddr: 0x5BD18, symBinAddr: 0x10005E0B8, symSize: 0xD8 }
  - { offsetInCU: 0x26D5D, offset: 0x26D5D, size: 0x8, addend: 0x0, symName: __ZNSt3__128__exception_guard_exceptionsINS_6vectorINS1_I8PositionNS_9allocatorIS2_EEEENS3_IS5_EEE16__destroy_vectorEED1B8ue170006Ev, symObjAddr: 0x5BDF0, symBinAddr: 0x10005E190, symSize: 0x78 }
  - { offsetInCU: 0x26D87, offset: 0x26D87, size: 0x8, addend: 0x0, symName: __ZNSt3__117__compressed_pairIPNS_6vectorI8PositionNS_9allocatorIS2_EEEENS3_IS5_EEEC2B8ue170006IDnNS_18__default_init_tagEEEOT_OT0_, symObjAddr: 0x5BE68, symBinAddr: 0x10005E208, symSize: 0x140 }
  - { offsetInCU: 0x26DDF, offset: 0x26DDF, size: 0x8, addend: 0x0, symName: __ZNSt3__122__compressed_pair_elemIPNS_6vectorI8PositionNS_9allocatorIS2_EEEELi0ELb0EEC2B8ue170006IDnvEEOT_, symObjAddr: 0x5BFA8, symBinAddr: 0x10005E348, symSize: 0xBC }
  - { offsetInCU: 0x26E21, offset: 0x26E21, size: 0x8, addend: 0x0, symName: __ZNSt3__122__compressed_pair_elemINS_9allocatorINS_6vectorI8PositionNS1_IS3_EEEEEELi1ELb1EEC2B8ue170006ENS_18__default_init_tagE, symObjAddr: 0x5C064, symBinAddr: 0x10005E404, symSize: 0x84 }
  - { offsetInCU: 0x26E55, offset: 0x26E55, size: 0x8, addend: 0x0, symName: __ZNSt3__19allocatorINS_6vectorI8PositionNS0_IS2_EEEEEC2B8ue170006Ev, symObjAddr: 0x5C0E8, symBinAddr: 0x10005E488, symSize: 0x84 }
  - { offsetInCU: 0x26E7F, offset: 0x26E7F, size: 0x8, addend: 0x0, symName: __ZNSt3__116__non_trivial_ifILb1ENS_9allocatorINS_6vectorI8PositionNS1_IS3_EEEEEEEC2B8ue170006Ev, symObjAddr: 0x5C16C, symBinAddr: 0x10005E50C, symSize: 0x54 }
  - { offsetInCU: 0x26EA9, offset: 0x26EA9, size: 0x8, addend: 0x0, symName: __ZNSt3__128__exception_guard_exceptionsINS_6vectorINS1_I8PositionNS_9allocatorIS2_EEEENS3_IS5_EEE16__destroy_vectorEEC1B8ue170006ES8_, symObjAddr: 0x5C1C0, symBinAddr: 0x10005E560, symSize: 0x28C }
  - { offsetInCU: 0x26EE6, offset: 0x26EE6, size: 0x8, addend: 0x0, symName: __ZNSt3__128__exception_guard_exceptionsINS_6vectorINS1_I8PositionNS_9allocatorIS2_EEEENS3_IS5_EEE16__destroy_vectorEEC2B8ue170006ES8_, symObjAddr: 0x5C44C, symBinAddr: 0x10005E7EC, symSize: 0x2BC }
  - { offsetInCU: 0x26F23, offset: 0x26F23, size: 0x8, addend: 0x0, symName: __ZNSt3__16vectorINS0_I8PositionNS_9allocatorIS1_EEEENS2_IS4_EEE16__destroy_vectorC2B8ue170006ERS6_, symObjAddr: 0x5C708, symBinAddr: 0x10005EAA8, symSize: 0x108 }
  - { offsetInCU: 0x26F5C, offset: 0x26F5C, size: 0x8, addend: 0x0, symName: __ZNKSt3__16vectorINS0_I8PositionNS_9allocatorIS1_EEEENS2_IS4_EEE8max_sizeEv, symObjAddr: 0x5C810, symBinAddr: 0x10005EBB0, symSize: 0x3B8 }
  - { offsetInCU: 0x26F85, offset: 0x26F85, size: 0x8, addend: 0x0, symName: __ZNKSt3__16vectorINS0_I8PositionNS_9allocatorIS1_EEEENS2_IS4_EEE20__throw_length_errorB8ue170006Ev, symObjAddr: 0x5CBC8, symBinAddr: 0x10005EF68, symSize: 0x80 }
  - { offsetInCU: 0x26FAB, offset: 0x26FAB, size: 0x8, addend: 0x0, symName: __ZNSt3__16vectorINS0_I8PositionNS_9allocatorIS1_EEEENS2_IS4_EEE7__allocB8ue170006Ev, symObjAddr: 0x5CED4, symBinAddr: 0x10005F274, symSize: 0xE4 }
  - { offsetInCU: 0x26FD1, offset: 0x26FD1, size: 0x8, addend: 0x0, symName: __ZNSt3__16vectorINS0_I8PositionNS_9allocatorIS1_EEEENS2_IS4_EEE9__end_capB8ue170006Ev, symObjAddr: 0x5CFB8, symBinAddr: 0x10005F358, symSize: 0x100 }
  - { offsetInCU: 0x26FF7, offset: 0x26FF7, size: 0x8, addend: 0x0, symName: __ZNKSt3__16vectorINS0_I8PositionNS_9allocatorIS1_EEEENS2_IS4_EEE14__annotate_newB8ue170006Em, symObjAddr: 0x5D0B8, symBinAddr: 0x10005F458, symSize: 0x378 }
  - { offsetInCU: 0x27036, offset: 0x27036, size: 0x8, addend: 0x0, symName: __ZNSt3__116allocator_traitsINS_9allocatorINS_6vectorI8PositionNS1_IS3_EEEEEEE8max_sizeB8ue170006IS6_vEEmRKS6_, symObjAddr: 0x5D430, symBinAddr: 0x10005F7D0, symSize: 0x24 }
  - { offsetInCU: 0x27064, offset: 0x27064, size: 0x8, addend: 0x0, symName: __ZNKSt3__16vectorINS0_I8PositionNS_9allocatorIS1_EEEENS2_IS4_EEE7__allocB8ue170006Ev, symObjAddr: 0x5D454, symBinAddr: 0x10005F7F4, symSize: 0xE4 }
  - { offsetInCU: 0x2708A, offset: 0x2708A, size: 0x8, addend: 0x0, symName: __ZNKSt3__19allocatorINS_6vectorI8PositionNS0_IS2_EEEEE8max_sizeB8ue170006Ev, symObjAddr: 0x5D538, symBinAddr: 0x10005F8D8, symSize: 0x50 }
  - { offsetInCU: 0x270B0, offset: 0x270B0, size: 0x8, addend: 0x0, symName: __ZNKSt3__117__compressed_pairIPNS_6vectorI8PositionNS_9allocatorIS2_EEEENS3_IS5_EEE6secondB8ue170006Ev, symObjAddr: 0x5D588, symBinAddr: 0x10005F928, symSize: 0x108 }
  - { offsetInCU: 0x270D6, offset: 0x270D6, size: 0x8, addend: 0x0, symName: __ZNKSt3__122__compressed_pair_elemINS_9allocatorINS_6vectorI8PositionNS1_IS3_EEEEEELi1ELb1EE5__getB8ue170006Ev, symObjAddr: 0x5D690, symBinAddr: 0x10005FA30, symSize: 0x74 }
  - { offsetInCU: 0x270FC, offset: 0x270FC, size: 0x8, addend: 0x0, symName: __ZNSt3__19allocatorINS_6vectorI8PositionNS0_IS2_EEEEE8allocateB8ue170006Em, symObjAddr: 0x5D704, symBinAddr: 0x10005FAA4, symSize: 0xD0 }
  - { offsetInCU: 0x27130, offset: 0x27130, size: 0x8, addend: 0x0, symName: __ZNSt3__117__compressed_pairIPNS_6vectorI8PositionNS_9allocatorIS2_EEEENS3_IS5_EEE6secondB8ue170006Ev, symObjAddr: 0x5D7D4, symBinAddr: 0x10005FB74, symSize: 0x108 }
  - { offsetInCU: 0x27156, offset: 0x27156, size: 0x8, addend: 0x0, symName: __ZNSt3__122__compressed_pair_elemINS_9allocatorINS_6vectorI8PositionNS1_IS3_EEEEEELi1ELb1EE5__getB8ue170006Ev, symObjAddr: 0x5D8DC, symBinAddr: 0x10005FC7C, symSize: 0x74 }
  - { offsetInCU: 0x2717C, offset: 0x2717C, size: 0x8, addend: 0x0, symName: __ZNSt3__117__compressed_pairIPNS_6vectorI8PositionNS_9allocatorIS2_EEEENS3_IS5_EEE5firstB8ue170006Ev, symObjAddr: 0x5D950, symBinAddr: 0x10005FCF0, symSize: 0x124 }
  - { offsetInCU: 0x271A2, offset: 0x271A2, size: 0x8, addend: 0x0, symName: __ZNSt3__122__compressed_pair_elemIPNS_6vectorI8PositionNS_9allocatorIS2_EEEELi0ELb0EE5__getB8ue170006Ev, symObjAddr: 0x5DA74, symBinAddr: 0x10005FE14, symSize: 0xAC }
  - { offsetInCU: 0x271C8, offset: 0x271C8, size: 0x8, addend: 0x0, symName: __ZNKSt3__16vectorINS0_I8PositionNS_9allocatorIS1_EEEENS2_IS4_EEE31__annotate_contiguous_containerEPKvS8_S8_S8_, symObjAddr: 0x5DB20, symBinAddr: 0x10005FEC0, symSize: 0x9C }
  - { offsetInCU: 0x2722A, offset: 0x2722A, size: 0x8, addend: 0x0, symName: __ZNKSt3__16vectorINS0_I8PositionNS_9allocatorIS1_EEEENS2_IS4_EEE4dataB8ue170006Ev, symObjAddr: 0x5DBBC, symBinAddr: 0x10005FF5C, symSize: 0xB0 }
  - { offsetInCU: 0x27250, offset: 0x27250, size: 0x8, addend: 0x0, symName: __ZNKSt3__16vectorINS0_I8PositionNS_9allocatorIS1_EEEENS2_IS4_EEE8capacityB8ue170006Ev, symObjAddr: 0x5DC6C, symBinAddr: 0x10006000C, symSize: 0x144 }
  - { offsetInCU: 0x27276, offset: 0x27276, size: 0x8, addend: 0x0, symName: __ZNKSt3__16vectorINS0_I8PositionNS_9allocatorIS1_EEEENS2_IS4_EEE9__end_capB8ue170006Ev, symObjAddr: 0x5DDC4, symBinAddr: 0x100060164, symSize: 0x100 }
  - { offsetInCU: 0x2729C, offset: 0x2729C, size: 0x8, addend: 0x0, symName: __ZNKSt3__117__compressed_pairIPNS_6vectorI8PositionNS_9allocatorIS2_EEEENS3_IS5_EEE5firstB8ue170006Ev, symObjAddr: 0x5DEC4, symBinAddr: 0x100060264, symSize: 0x124 }
  - { offsetInCU: 0x272C2, offset: 0x272C2, size: 0x8, addend: 0x0, symName: __ZNKSt3__122__compressed_pair_elemIPNS_6vectorI8PositionNS_9allocatorIS2_EEEELi0ELb0EE5__getB8ue170006Ev, symObjAddr: 0x5DFE8, symBinAddr: 0x100060388, symSize: 0xAC }
  - { offsetInCU: 0x27301, offset: 0x27301, size: 0x8, addend: 0x0, symName: __ZNSt3__16vectorINS0_I8PositionNS_9allocatorIS1_EEEENS2_IS4_EEE21_ConstructTransactionC1B8ue170006ERS6_m, symObjAddr: 0x5E094, symBinAddr: 0x100060434, symSize: 0x88 }
  - { offsetInCU: 0x27349, offset: 0x27349, size: 0x8, addend: 0x0, symName: __ZNSt3__116allocator_traitsINS_9allocatorINS_6vectorI8PositionNS1_IS3_EEEEEEE9constructB8ue170006IS5_JRKS5_EvEEvRS6_PT_DpOT0_, symObjAddr: 0x5E11C, symBinAddr: 0x1000604BC, symSize: 0x8C }
  - { offsetInCU: 0x273A0, offset: 0x273A0, size: 0x8, addend: 0x0, symName: __ZNSt3__16vectorINS0_I8PositionNS_9allocatorIS1_EEEENS2_IS4_EEE21_ConstructTransactionD1B8ue170006Ev, symObjAddr: 0x5E1A8, symBinAddr: 0x100060548, symSize: 0x78 }
  - { offsetInCU: 0x273CA, offset: 0x273CA, size: 0x8, addend: 0x0, symName: __ZNSt3__16vectorINS0_I8PositionNS_9allocatorIS1_EEEENS2_IS4_EEE21_ConstructTransactionC2B8ue170006ERS6_m, symObjAddr: 0x5E220, symBinAddr: 0x1000605C0, symSize: 0x3E0 }
  - { offsetInCU: 0x27412, offset: 0x27412, size: 0x8, addend: 0x0, symName: __ZNKSt3__16vectorINS0_I8PositionNS_9allocatorIS1_EEEENS2_IS4_EEE19__annotate_increaseB8ue170006Em, symObjAddr: 0x5E600, symBinAddr: 0x1000609A0, symSize: 0x46C }
  - { offsetInCU: 0x27447, offset: 0x27447, size: 0x8, addend: 0x0, symName: __ZNKSt3__16vectorINS0_I8PositionNS_9allocatorIS1_EEEENS2_IS4_EEE4sizeB8ue170006Ev, symObjAddr: 0x5EA6C, symBinAddr: 0x100060E0C, symSize: 0xF8 }
  - { offsetInCU: 0x2746D, offset: 0x2746D, size: 0x8, addend: 0x0, symName: __ZNSt3__19allocatorINS_6vectorI8PositionNS0_IS2_EEEEE9constructB8ue170006IS4_JRKS4_EEEvPT_DpOT0_, symObjAddr: 0x5EB64, symBinAddr: 0x100060F04, symSize: 0xEC }
  - { offsetInCU: 0x274C3, offset: 0x274C3, size: 0x8, addend: 0x0, symName: __ZNSt3__16vectorI8PositionNS_9allocatorIS1_EEEC1ERKS4_, symObjAddr: 0x5EC50, symBinAddr: 0x100060FF0, symSize: 0x80 }
  - { offsetInCU: 0x274FE, offset: 0x274FE, size: 0x8, addend: 0x0, symName: __ZNSt3__16vectorI8PositionNS_9allocatorIS1_EEEC2ERKS4_, symObjAddr: 0x5ECD0, symBinAddr: 0x100061070, symSize: 0x4C0 }
  - { offsetInCU: 0x2753B, offset: 0x2753B, size: 0x8, addend: 0x0, symName: __ZNSt3__116allocator_traitsINS_9allocatorI8PositionEEE37select_on_container_copy_constructionB8ue170006IS3_vvEES3_RKS3_, symObjAddr: 0x5F190, symBinAddr: 0x100061530, symSize: 0x10 }
  - { offsetInCU: 0x2756F, offset: 0x2756F, size: 0x8, addend: 0x0, symName: __ZNSt3__117__compressed_pairIP8PositionNS_9allocatorIS1_EEEC1B8ue170006IDnS4_EEOT_OT0_, symObjAddr: 0x5F1A0, symBinAddr: 0x100061540, symSize: 0x88 }
  - { offsetInCU: 0x275C7, offset: 0x275C7, size: 0x8, addend: 0x0, symName: __ZNSt3__16vectorI8PositionNS_9allocatorIS1_EEE16__init_with_sizeB8ue170006IPS1_S6_EEvT_T0_m, symObjAddr: 0x5F228, symBinAddr: 0x1000615C8, symSize: 0x3EC }
  - { offsetInCU: 0x27643, offset: 0x27643, size: 0x8, addend: 0x0, symName: __ZNSt3__117__compressed_pairIP8PositionNS_9allocatorIS1_EEEC2B8ue170006IDnS4_EEOT_OT0_, symObjAddr: 0x5F614, symBinAddr: 0x1000619B4, symSize: 0x170 }
  - { offsetInCU: 0x2769B, offset: 0x2769B, size: 0x8, addend: 0x0, symName: __ZNSt3__122__compressed_pair_elemINS_9allocatorI8PositionEELi1ELb1EEC2B8ue170006IS3_vEEOT_, symObjAddr: 0x5F784, symBinAddr: 0x100061B24, symSize: 0x58 }
  - { offsetInCU: 0x276DD, offset: 0x276DD, size: 0x8, addend: 0x0, symName: __ZNSt3__16vectorI8PositionNS_9allocatorIS1_EEE18__construct_at_endIPS1_S6_EEvT_T0_m, symObjAddr: 0x5F7DC, symBinAddr: 0x100061B7C, symSize: 0x494 }
  - { offsetInCU: 0x27774, offset: 0x27774, size: 0x8, addend: 0x0, symName: __ZNSt3__14pairIP8PositionS2_EC1B8ue170006IS2_S2_LPv0EEEOT_OT0_, symObjAddr: 0x60638, symBinAddr: 0x1000629D8, symSize: 0x88 }
  - { offsetInCU: 0x277D2, offset: 0x277D2, size: 0x8, addend: 0x0, symName: __ZNSt3__14pairIP8PositionS2_EC2B8ue170006IS2_S2_LPv0EEEOT_OT0_, symObjAddr: 0x606C0, symBinAddr: 0x100062A60, symSize: 0x210 }
  - { offsetInCU: 0x2783A, offset: 0x2783A, size: 0x8, addend: 0x0, symName: __ZNKSt3__114__copy_trivialclB8ue170006I8PositionS2_Li0EEENS_4pairIPT_PT0_EES5_S5_S7_, symObjAddr: 0x61610, symBinAddr: 0x1000639B0, symSize: 0x25C }
  - { offsetInCU: 0x278A6, offset: 0x278A6, size: 0x8, addend: 0x0, symName: __ZNSt3__14pairIP8PositionS2_EC1B8ue170006IRS2_S2_LPv0EEEOT_OT0_, symObjAddr: 0x62028, symBinAddr: 0x1000643C8, symSize: 0x88 }
  - { offsetInCU: 0x27904, offset: 0x27904, size: 0x8, addend: 0x0, symName: __ZNSt3__14pairIP8PositionS2_EC2B8ue170006IRS2_S2_LPv0EEEOT_OT0_, symObjAddr: 0x620B0, symBinAddr: 0x100064450, symSize: 0x210 }
  - { offsetInCU: 0x27962, offset: 0x27962, size: 0x8, addend: 0x0, symName: __ZNSt3__118__unwrap_iter_implIP8PositionLb1EE8__unwrapB8ue170006ES2_, symObjAddr: 0x622C0, symBinAddr: 0x100064660, symSize: 0x24 }
  - { offsetInCU: 0x27985, offset: 0x27985, size: 0x8, addend: 0x0, symName: __ZNSt3__118__unwrap_iter_implIP8PositionLb1EE8__rewrapB8ue170006ES2_S2_, symObjAddr: 0x622E4, symBinAddr: 0x100064684, symSize: 0x140 }
  - { offsetInCU: 0x279B6, offset: 0x279B6, size: 0x8, addend: 0x0, symName: __ZNSt3__16vectorINS0_I8PositionNS_9allocatorIS1_EEEENS2_IS4_EEE21_ConstructTransactionD2B8ue170006Ev, symObjAddr: 0x62424, symBinAddr: 0x1000647C4, symSize: 0x390 }
  - { offsetInCU: 0x279E0, offset: 0x279E0, size: 0x8, addend: 0x0, symName: __ZNKSt3__16vectorINS0_I8PositionNS_9allocatorIS1_EEEENS2_IS4_EEE17__annotate_shrinkB8ue170006Em, symObjAddr: 0x627B4, symBinAddr: 0x100064B54, symSize: 0x378 }
  - { offsetInCU: 0x27A15, offset: 0x27A15, size: 0x8, addend: 0x0, symName: __ZNSt3__128__exception_guard_exceptionsINS_6vectorINS1_I8PositionNS_9allocatorIS2_EEEENS3_IS5_EEE16__destroy_vectorEED2B8ue170006Ev, symObjAddr: 0x62B2C, symBinAddr: 0x100064ECC, symSize: 0x17C }
  - { offsetInCU: 0x27A3F, offset: 0x27A3F, size: 0x8, addend: 0x0, symName: __ZNSt3__16vectorINS0_I8PositionNS_9allocatorIS1_EEEENS2_IS4_EEE16__destroy_vectorclB8ue170006Ev, symObjAddr: 0x62CA8, symBinAddr: 0x100065048, symSize: 0x43C }
  - { offsetInCU: 0x27A65, offset: 0x27A65, size: 0x8, addend: 0x0, symName: __ZNSt3__16vectorINS0_I8PositionNS_9allocatorIS1_EEEENS2_IS4_EEE7__clearB8ue170006Ev, symObjAddr: 0x630E4, symBinAddr: 0x100065484, symSize: 0xB0 }
  - { offsetInCU: 0x27A8B, offset: 0x27A8B, size: 0x8, addend: 0x0, symName: __ZNKSt3__16vectorINS0_I8PositionNS_9allocatorIS1_EEEENS2_IS4_EEE17__annotate_deleteB8ue170006Ev, symObjAddr: 0x63194, symBinAddr: 0x100065534, symSize: 0x388 }
  - { offsetInCU: 0x27AB1, offset: 0x27AB1, size: 0x8, addend: 0x0, symName: __ZNSt3__116allocator_traitsINS_9allocatorINS_6vectorI8PositionNS1_IS3_EEEEEEE10deallocateB8ue170006ERS6_PS5_m, symObjAddr: 0x6351C, symBinAddr: 0x1000658BC, symSize: 0x34 }
  - { offsetInCU: 0x27AF3, offset: 0x27AF3, size: 0x8, addend: 0x0, symName: __ZNSt3__16vectorINS0_I8PositionNS_9allocatorIS1_EEEENS2_IS4_EEE22__base_destruct_at_endB8ue170006EPS4_, symObjAddr: 0x63550, symBinAddr: 0x1000658F0, symSize: 0x1FC }
  - { offsetInCU: 0x27B37, offset: 0x27B37, size: 0x8, addend: 0x0, symName: __ZNSt3__116allocator_traitsINS_9allocatorINS_6vectorI8PositionNS1_IS3_EEEEEEE7destroyB8ue170006IS5_vEEvRS6_PT_, symObjAddr: 0x6374C, symBinAddr: 0x100065AEC, symSize: 0x2C }
  - { offsetInCU: 0x27B74, offset: 0x27B74, size: 0x8, addend: 0x0, symName: __ZNSt3__19allocatorINS_6vectorI8PositionNS0_IS2_EEEEE7destroyB8ue170006EPS4_, symObjAddr: 0x63778, symBinAddr: 0x100065B18, symSize: 0x9C }
  - { offsetInCU: 0x27BA8, offset: 0x27BA8, size: 0x8, addend: 0x0, symName: __ZNSt3__19allocatorINS_6vectorI8PositionNS0_IS2_EEEEE10deallocateB8ue170006EPS4_m, symObjAddr: 0x63814, symBinAddr: 0x100065BB4, symSize: 0x7C }
  - { offsetInCU: 0x27BEA, offset: 0x27BEA, size: 0x8, addend: 0x0, symName: __ZNSt3__16vectorINS0_I8PositionNS_9allocatorIS1_EEEENS2_IS4_EEED2B8ue170006Ev, symObjAddr: 0x63890, symBinAddr: 0x100065C30, symSize: 0x294 }
  - { offsetInCU: 0x27C15, offset: 0x27C15, size: 0x8, addend: 0x0, symName: __ZNSt3__16vectorINS0_INS0_I8PositionNS_9allocatorIS1_EEEENS2_IS4_EEEENS2_IS6_EEEC2EmRKS6_, symObjAddr: 0x63B24, symBinAddr: 0x100065EC4, symSize: 0x574 }
  - { offsetInCU: 0x27C7B, offset: 0x27C7B, size: 0x8, addend: 0x0, symName: __ZNSt3__16vectorINS0_INS0_I8PositionNS_9allocatorIS1_EEEENS2_IS4_EEEENS2_IS6_EEE11__vallocateB8ue170006Em, symObjAddr: 0x64354, symBinAddr: 0x1000666F4, symSize: 0x5F0 }
  - { offsetInCU: 0x27CC5, offset: 0x27CC5, size: 0x8, addend: 0x0, symName: __ZNSt3__16vectorINS0_INS0_I8PositionNS_9allocatorIS1_EEEENS2_IS4_EEEENS2_IS6_EEE18__construct_at_endEmRKS6_, symObjAddr: 0x64944, symBinAddr: 0x100066CE4, symSize: 0x5F4 }
  - { offsetInCU: 0x27D4F, offset: 0x27D4F, size: 0x8, addend: 0x0, symName: __ZNSt3__128__exception_guard_exceptionsINS_6vectorINS1_INS1_I8PositionNS_9allocatorIS2_EEEENS3_IS5_EEEENS3_IS7_EEE16__destroy_vectorEE10__completeB8ue170006Ev, symObjAddr: 0x64F38, symBinAddr: 0x1000672D8, symSize: 0xD8 }
  - { offsetInCU: 0x27D75, offset: 0x27D75, size: 0x8, addend: 0x0, symName: __ZNSt3__128__exception_guard_exceptionsINS_6vectorINS1_INS1_I8PositionNS_9allocatorIS2_EEEENS3_IS5_EEEENS3_IS7_EEE16__destroy_vectorEED1B8ue170006Ev, symObjAddr: 0x65010, symBinAddr: 0x1000673B0, symSize: 0x78 }
  - { offsetInCU: 0x27D9F, offset: 0x27D9F, size: 0x8, addend: 0x0, symName: __ZNSt3__128__exception_guard_exceptionsINS_6vectorINS1_INS1_I8PositionNS_9allocatorIS2_EEEENS3_IS5_EEEENS3_IS7_EEE16__destroy_vectorEEC1B8ue170006ESA_, symObjAddr: 0x65088, symBinAddr: 0x100067428, symSize: 0x28C }
  - { offsetInCU: 0x27DDC, offset: 0x27DDC, size: 0x8, addend: 0x0, symName: __ZNSt3__128__exception_guard_exceptionsINS_6vectorINS1_INS1_I8PositionNS_9allocatorIS2_EEEENS3_IS5_EEEENS3_IS7_EEE16__destroy_vectorEEC2B8ue170006ESA_, symObjAddr: 0x65314, symBinAddr: 0x1000676B4, symSize: 0x2BC }
  - { offsetInCU: 0x27E19, offset: 0x27E19, size: 0x8, addend: 0x0, symName: __ZNKSt3__16vectorINS0_INS0_I8PositionNS_9allocatorIS1_EEEENS2_IS4_EEEENS2_IS6_EEE8max_sizeEv, symObjAddr: 0x655D0, symBinAddr: 0x100067970, symSize: 0x3B8 }
  - { offsetInCU: 0x27E42, offset: 0x27E42, size: 0x8, addend: 0x0, symName: __ZNKSt3__16vectorINS0_INS0_I8PositionNS_9allocatorIS1_EEEENS2_IS4_EEEENS2_IS6_EEE20__throw_length_errorB8ue170006Ev, symObjAddr: 0x65988, symBinAddr: 0x100067D28, symSize: 0x80 }
  - { offsetInCU: 0x27E68, offset: 0x27E68, size: 0x8, addend: 0x0, symName: __ZNSt3__16vectorINS0_INS0_I8PositionNS_9allocatorIS1_EEEENS2_IS4_EEEENS2_IS6_EEE9__end_capB8ue170006Ev, symObjAddr: 0x65C94, symBinAddr: 0x100068034, symSize: 0x100 }
  - { offsetInCU: 0x27E8E, offset: 0x27E8E, size: 0x8, addend: 0x0, symName: __ZNKSt3__16vectorINS0_INS0_I8PositionNS_9allocatorIS1_EEEENS2_IS4_EEEENS2_IS6_EEE14__annotate_newB8ue170006Em, symObjAddr: 0x65D94, symBinAddr: 0x100068134, symSize: 0x378 }
  - { offsetInCU: 0x27ECD, offset: 0x27ECD, size: 0x8, addend: 0x0, symName: __ZNSt3__116allocator_traitsINS_9allocatorINS_6vectorINS2_I8PositionNS1_IS3_EEEENS1_IS5_EEEEEEE8max_sizeB8ue170006IS8_vEEmRKS8_, symObjAddr: 0x6610C, symBinAddr: 0x1000684AC, symSize: 0x24 }
  - { offsetInCU: 0x27EFB, offset: 0x27EFB, size: 0x8, addend: 0x0, symName: __ZNKSt3__16vectorINS0_INS0_I8PositionNS_9allocatorIS1_EEEENS2_IS4_EEEENS2_IS6_EEE7__allocB8ue170006Ev, symObjAddr: 0x66130, symBinAddr: 0x1000684D0, symSize: 0xE4 }
  - { offsetInCU: 0x27F21, offset: 0x27F21, size: 0x8, addend: 0x0, symName: __ZNKSt3__19allocatorINS_6vectorINS1_I8PositionNS0_IS2_EEEENS0_IS4_EEEEE8max_sizeB8ue170006Ev, symObjAddr: 0x66214, symBinAddr: 0x1000685B4, symSize: 0x50 }
  - { offsetInCU: 0x27F47, offset: 0x27F47, size: 0x8, addend: 0x0, symName: __ZNKSt3__117__compressed_pairIPNS_6vectorINS1_I8PositionNS_9allocatorIS2_EEEENS3_IS5_EEEENS3_IS7_EEE6secondB8ue170006Ev, symObjAddr: 0x66264, symBinAddr: 0x100068604, symSize: 0x108 }
  - { offsetInCU: 0x27F6D, offset: 0x27F6D, size: 0x8, addend: 0x0, symName: __ZNKSt3__122__compressed_pair_elemINS_9allocatorINS_6vectorINS2_I8PositionNS1_IS3_EEEENS1_IS5_EEEEEELi1ELb1EE5__getB8ue170006Ev, symObjAddr: 0x6636C, symBinAddr: 0x10006870C, symSize: 0x74 }
  - { offsetInCU: 0x27F93, offset: 0x27F93, size: 0x8, addend: 0x0, symName: __ZNSt3__19allocatorINS_6vectorINS1_I8PositionNS0_IS2_EEEENS0_IS4_EEEEE8allocateB8ue170006Em, symObjAddr: 0x663E0, symBinAddr: 0x100068780, symSize: 0xD0 }
  - { offsetInCU: 0x27FC7, offset: 0x27FC7, size: 0x8, addend: 0x0, symName: __ZNSt3__117__compressed_pairIPNS_6vectorINS1_I8PositionNS_9allocatorIS2_EEEENS3_IS5_EEEENS3_IS7_EEE5firstB8ue170006Ev, symObjAddr: 0x664B0, symBinAddr: 0x100068850, symSize: 0x124 }
  - { offsetInCU: 0x27FED, offset: 0x27FED, size: 0x8, addend: 0x0, symName: __ZNSt3__122__compressed_pair_elemIPNS_6vectorINS1_I8PositionNS_9allocatorIS2_EEEENS3_IS5_EEEELi0ELb0EE5__getB8ue170006Ev, symObjAddr: 0x665D4, symBinAddr: 0x100068974, symSize: 0xAC }
  - { offsetInCU: 0x2802C, offset: 0x2802C, size: 0x8, addend: 0x0, symName: __ZNSt3__16vectorINS0_INS0_I8PositionNS_9allocatorIS1_EEEENS2_IS4_EEEENS2_IS6_EEE21_ConstructTransactionC1B8ue170006ERS8_m, symObjAddr: 0x66680, symBinAddr: 0x100068A20, symSize: 0x88 }
  - { offsetInCU: 0x28074, offset: 0x28074, size: 0x8, addend: 0x0, symName: __ZNSt3__116allocator_traitsINS_9allocatorINS_6vectorINS2_I8PositionNS1_IS3_EEEENS1_IS5_EEEEEEE9constructB8ue170006IS7_JRKS7_EvEEvRS8_PT_DpOT0_, symObjAddr: 0x66708, symBinAddr: 0x100068AA8, symSize: 0x8C }
  - { offsetInCU: 0x280CB, offset: 0x280CB, size: 0x8, addend: 0x0, symName: __ZNSt3__16vectorINS0_INS0_I8PositionNS_9allocatorIS1_EEEENS2_IS4_EEEENS2_IS6_EEE21_ConstructTransactionD1B8ue170006Ev, symObjAddr: 0x66794, symBinAddr: 0x100068B34, symSize: 0x78 }
  - { offsetInCU: 0x280F5, offset: 0x280F5, size: 0x8, addend: 0x0, symName: __ZNSt3__16vectorINS0_INS0_I8PositionNS_9allocatorIS1_EEEENS2_IS4_EEEENS2_IS6_EEE21_ConstructTransactionC2B8ue170006ERS8_m, symObjAddr: 0x6680C, symBinAddr: 0x100068BAC, symSize: 0x3E0 }
  - { offsetInCU: 0x2813D, offset: 0x2813D, size: 0x8, addend: 0x0, symName: __ZNKSt3__16vectorINS0_INS0_I8PositionNS_9allocatorIS1_EEEENS2_IS4_EEEENS2_IS6_EEE19__annotate_increaseB8ue170006Em, symObjAddr: 0x66BEC, symBinAddr: 0x100068F8C, symSize: 0x46C }
  - { offsetInCU: 0x28172, offset: 0x28172, size: 0x8, addend: 0x0, symName: __ZNSt3__19allocatorINS_6vectorINS1_I8PositionNS0_IS2_EEEENS0_IS4_EEEEE9constructB8ue170006IS6_JRKS6_EEEvPT_DpOT0_, symObjAddr: 0x67058, symBinAddr: 0x1000693F8, symSize: 0xEC }
  - { offsetInCU: 0x281C8, offset: 0x281C8, size: 0x8, addend: 0x0, symName: __ZNSt3__16vectorINS0_I8PositionNS_9allocatorIS1_EEEENS2_IS4_EEEC1ERKS6_, symObjAddr: 0x67144, symBinAddr: 0x1000694E4, symSize: 0x80 }
  - { offsetInCU: 0x28203, offset: 0x28203, size: 0x8, addend: 0x0, symName: __ZNSt3__16vectorINS0_I8PositionNS_9allocatorIS1_EEEENS2_IS4_EEEC2ERKS6_, symObjAddr: 0x671C4, symBinAddr: 0x100069564, symSize: 0x4C0 }
  - { offsetInCU: 0x28240, offset: 0x28240, size: 0x8, addend: 0x0, symName: __ZNSt3__116allocator_traitsINS_9allocatorINS_6vectorI8PositionNS1_IS3_EEEEEEE37select_on_container_copy_constructionB8ue170006IS6_vvEES6_RKS6_, symObjAddr: 0x67684, symBinAddr: 0x100069A24, symSize: 0x10 }
  - { offsetInCU: 0x28274, offset: 0x28274, size: 0x8, addend: 0x0, symName: __ZNSt3__117__compressed_pairIPNS_6vectorI8PositionNS_9allocatorIS2_EEEENS3_IS5_EEEC1B8ue170006IDnS7_EEOT_OT0_, symObjAddr: 0x67694, symBinAddr: 0x100069A34, symSize: 0x88 }
  - { offsetInCU: 0x282CC, offset: 0x282CC, size: 0x8, addend: 0x0, symName: __ZNSt3__16vectorINS0_I8PositionNS_9allocatorIS1_EEEENS2_IS4_EEE16__init_with_sizeB8ue170006IPS4_S8_EEvT_T0_m, symObjAddr: 0x6771C, symBinAddr: 0x100069ABC, symSize: 0x3EC }
  - { offsetInCU: 0x28348, offset: 0x28348, size: 0x8, addend: 0x0, symName: __ZNSt3__117__compressed_pairIPNS_6vectorI8PositionNS_9allocatorIS2_EEEENS3_IS5_EEEC2B8ue170006IDnS7_EEOT_OT0_, symObjAddr: 0x67B08, symBinAddr: 0x100069EA8, symSize: 0x170 }
  - { offsetInCU: 0x283A0, offset: 0x283A0, size: 0x8, addend: 0x0, symName: __ZNSt3__122__compressed_pair_elemINS_9allocatorINS_6vectorI8PositionNS1_IS3_EEEEEELi1ELb1EEC2B8ue170006IS6_vEEOT_, symObjAddr: 0x67C78, symBinAddr: 0x10006A018, symSize: 0x58 }
  - { offsetInCU: 0x283E2, offset: 0x283E2, size: 0x8, addend: 0x0, symName: __ZNSt3__16vectorINS0_I8PositionNS_9allocatorIS1_EEEENS2_IS4_EEE18__construct_at_endIPS4_S8_EEvT_T0_m, symObjAddr: 0x67CD0, symBinAddr: 0x10006A070, symSize: 0x494 }
  - { offsetInCU: 0x2847E, offset: 0x2847E, size: 0x8, addend: 0x0, symName: __ZNSt3__14pairIPNS_6vectorI8PositionNS_9allocatorIS2_EEEES6_EC1B8ue170006IS6_S6_LPv0EEEOT_OT0_, symObjAddr: 0x691E0, symBinAddr: 0x10006B580, symSize: 0x88 }
  - { offsetInCU: 0x284DC, offset: 0x284DC, size: 0x8, addend: 0x0, symName: __ZNSt3__14pairIPNS_6vectorI8PositionNS_9allocatorIS2_EEEES6_EC2B8ue170006IS6_S6_LPv0EEEOT_OT0_, symObjAddr: 0x69268, symBinAddr: 0x10006B608, symSize: 0x210 }
  - { offsetInCU: 0x2853A, offset: 0x2853A, size: 0x8, addend: 0x0, symName: __ZNSt3__129_AllocatorDestroyRangeReverseINS_9allocatorINS_6vectorI8PositionNS1_IS3_EEEEEEPS5_EC1B8ue170006ERS6_RS7_SA_, symObjAddr: 0x696B4, symBinAddr: 0x10006BA54, symSize: 0x90 }
  - { offsetInCU: 0x28591, offset: 0x28591, size: 0x8, addend: 0x0, symName: __ZNSt3__116allocator_traitsINS_9allocatorINS_6vectorI8PositionNS1_IS3_EEEEEEE9constructB8ue170006IS5_JRS5_EvEEvRS6_PT_DpOT0_, symObjAddr: 0x69744, symBinAddr: 0x10006BAE4, symSize: 0x8C }
  - { offsetInCU: 0x285E8, offset: 0x285E8, size: 0x8, addend: 0x0, symName: __ZNSt3__128__exception_guard_exceptionsINS_29_AllocatorDestroyRangeReverseINS_9allocatorINS_6vectorI8PositionNS2_IS4_EEEEEEPS6_EEE10__completeB8ue170006Ev, symObjAddr: 0x697D0, symBinAddr: 0x10006BB70, symSize: 0xD8 }
  - { offsetInCU: 0x2860E, offset: 0x2860E, size: 0x8, addend: 0x0, symName: __ZNSt3__128__exception_guard_exceptionsINS_29_AllocatorDestroyRangeReverseINS_9allocatorINS_6vectorI8PositionNS2_IS4_EEEEEEPS6_EEED1B8ue170006Ev, symObjAddr: 0x698A8, symBinAddr: 0x10006BC48, symSize: 0x78 }
  - { offsetInCU: 0x28638, offset: 0x28638, size: 0x8, addend: 0x0, symName: __ZNSt3__128__exception_guard_exceptionsINS_29_AllocatorDestroyRangeReverseINS_9allocatorINS_6vectorI8PositionNS2_IS4_EEEEEEPS6_EEEC1B8ue170006ES9_, symObjAddr: 0x69920, symBinAddr: 0x10006BCC0, symSize: 0x84 }
  - { offsetInCU: 0x28671, offset: 0x28671, size: 0x8, addend: 0x0, symName: __ZNSt3__128__exception_guard_exceptionsINS_29_AllocatorDestroyRangeReverseINS_9allocatorINS_6vectorI8PositionNS2_IS4_EEEEEEPS6_EEEC2B8ue170006ES9_, symObjAddr: 0x699A4, symBinAddr: 0x10006BD44, symSize: 0xF8 }
  - { offsetInCU: 0x286AA, offset: 0x286AA, size: 0x8, addend: 0x0, symName: __ZNSt3__129_AllocatorDestroyRangeReverseINS_9allocatorINS_6vectorI8PositionNS1_IS3_EEEEEEPS5_EC2B8ue170006ERS6_RS7_SA_, symObjAddr: 0x69A9C, symBinAddr: 0x10006BE3C, symSize: 0x20C }
  - { offsetInCU: 0x28701, offset: 0x28701, size: 0x8, addend: 0x0, symName: __ZNSt3__19allocatorINS_6vectorI8PositionNS0_IS2_EEEEE9constructB8ue170006IS4_JRS4_EEEvPT_DpOT0_, symObjAddr: 0x69CA8, symBinAddr: 0x10006C048, symSize: 0xEC }
  - { offsetInCU: 0x28757, offset: 0x28757, size: 0x8, addend: 0x0, symName: __ZNSt3__128__exception_guard_exceptionsINS_29_AllocatorDestroyRangeReverseINS_9allocatorINS_6vectorI8PositionNS2_IS4_EEEEEEPS6_EEED2B8ue170006Ev, symObjAddr: 0x69D94, symBinAddr: 0x10006C134, symSize: 0x17C }
  - { offsetInCU: 0x28781, offset: 0x28781, size: 0x8, addend: 0x0, symName: __ZNKSt3__129_AllocatorDestroyRangeReverseINS_9allocatorINS_6vectorI8PositionNS1_IS3_EEEEEEPS5_EclB8ue170006Ev, symObjAddr: 0x69F10, symBinAddr: 0x10006C2B0, symSize: 0x40C }
  - { offsetInCU: 0x287A8, offset: 0x287A8, size: 0x8, addend: 0x0, symName: __ZNSt3__116reverse_iteratorIPNS_6vectorI8PositionNS_9allocatorIS2_EEEEEC1B8ue170006ES6_, symObjAddr: 0x6A5F8, symBinAddr: 0x10006C998, symSize: 0x80 }
  - { offsetInCU: 0x287E0, offset: 0x287E0, size: 0x8, addend: 0x0, symName: __ZNSt3__116reverse_iteratorIPNS_6vectorI8PositionNS_9allocatorIS2_EEEEEppB8ue170006Ev, symObjAddr: 0x6A780, symBinAddr: 0x10006CB20, symSize: 0x1B0 }
  - { offsetInCU: 0x28806, offset: 0x28806, size: 0x8, addend: 0x0, symName: __ZNKSt3__116reverse_iteratorIPNS_6vectorI8PositionNS_9allocatorIS2_EEEEE4baseB8ue170006Ev, symObjAddr: 0x6A930, symBinAddr: 0x10006CCD0, symSize: 0xB0 }
  - { offsetInCU: 0x28831, offset: 0x28831, size: 0x8, addend: 0x0, symName: __ZNSt3__119__to_address_helperINS_16reverse_iteratorIPNS_6vectorI8PositionNS_9allocatorIS3_EEEEEEvE6__callB8ue170006ERKS8_, symObjAddr: 0x6A9E0, symBinAddr: 0x10006CD80, symSize: 0x70 }
  - { offsetInCU: 0x28854, offset: 0x28854, size: 0x8, addend: 0x0, symName: __ZNKSt3__116reverse_iteratorIPNS_6vectorI8PositionNS_9allocatorIS2_EEEEEptB8ue170006Ev, symObjAddr: 0x6AA50, symBinAddr: 0x10006CDF0, symSize: 0x6C }
  - { offsetInCU: 0x2887A, offset: 0x2887A, size: 0x8, addend: 0x0, symName: __ZNKSt3__116reverse_iteratorIPNS_6vectorI8PositionNS_9allocatorIS2_EEEEEdeB8ue170006Ev, symObjAddr: 0x6AABC, symBinAddr: 0x10006CE5C, symSize: 0x184 }
  - { offsetInCU: 0x288AE, offset: 0x288AE, size: 0x8, addend: 0x0, symName: __ZNSt3__116reverse_iteratorIPNS_6vectorI8PositionNS_9allocatorIS2_EEEEEC2B8ue170006ES6_, symObjAddr: 0x6AC40, symBinAddr: 0x10006CFE0, symSize: 0x10C }
  - { offsetInCU: 0x288E6, offset: 0x288E6, size: 0x8, addend: 0x0, symName: __ZNSt3__118__unwrap_iter_implIPNS_6vectorI8PositionNS_9allocatorIS2_EEEELb1EE8__unwrapB8ue170006ES6_, symObjAddr: 0x6AD4C, symBinAddr: 0x10006D0EC, symSize: 0x24 }
  - { offsetInCU: 0x28909, offset: 0x28909, size: 0x8, addend: 0x0, symName: __ZNSt3__118__unwrap_iter_implIPNS_6vectorI8PositionNS_9allocatorIS2_EEEELb1EE8__rewrapB8ue170006ES6_S6_, symObjAddr: 0x6AD70, symBinAddr: 0x10006D110, symSize: 0x140 }
  - { offsetInCU: 0x2893A, offset: 0x2893A, size: 0x8, addend: 0x0, symName: __ZNSt3__16vectorINS0_INS0_I8PositionNS_9allocatorIS1_EEEENS2_IS4_EEEENS2_IS6_EEE21_ConstructTransactionD2B8ue170006Ev, symObjAddr: 0x6AEB0, symBinAddr: 0x10006D250, symSize: 0x390 }
  - { offsetInCU: 0x28964, offset: 0x28964, size: 0x8, addend: 0x0, symName: __ZNKSt3__16vectorINS0_INS0_I8PositionNS_9allocatorIS1_EEEENS2_IS4_EEEENS2_IS6_EEE17__annotate_shrinkB8ue170006Em, symObjAddr: 0x6B240, symBinAddr: 0x10006D5E0, symSize: 0x378 }
  - { offsetInCU: 0x28999, offset: 0x28999, size: 0x8, addend: 0x0, symName: __ZNSt3__128__exception_guard_exceptionsINS_6vectorINS1_INS1_I8PositionNS_9allocatorIS2_EEEENS3_IS5_EEEENS3_IS7_EEE16__destroy_vectorEED2B8ue170006Ev, symObjAddr: 0x6B5B8, symBinAddr: 0x10006D958, symSize: 0x168 }
  - { offsetInCU: 0x289C3, offset: 0x289C3, size: 0x8, addend: 0x0, symName: __ZNSt3__16vectorINS0_INS0_I8PositionNS_9allocatorIS1_EEEENS2_IS4_EEEENS2_IS6_EEE13__move_assignERS8_NS_17integral_constantIbLb1EEE, symObjAddr: 0x6B720, symBinAddr: 0x10006DAC0, symSize: 0x4FC }
  - { offsetInCU: 0x28A05, offset: 0x28A05, size: 0x8, addend: 0x0, symName: __ZNSt3__16vectorINS0_INS0_I8PositionNS_9allocatorIS1_EEEENS2_IS4_EEEENS2_IS6_EEE13__vdeallocateEv, symObjAddr: 0x6BC1C, symBinAddr: 0x10006DFBC, symSize: 0x244 }
  - { offsetInCU: 0x28A2D, offset: 0x28A2D, size: 0x8, addend: 0x0, symName: __ZNSt3__16vectorINS0_INS0_I8PositionNS_9allocatorIS1_EEEENS2_IS4_EEEENS2_IS6_EEE19__move_assign_allocB8ue170006ERS8_, symObjAddr: 0x6BE60, symBinAddr: 0x10006E200, symSize: 0xBC }
  - { offsetInCU: 0x28A62, offset: 0x28A62, size: 0x8, addend: 0x0, symName: __ZNSt3__16vectorINS0_INS0_I8PositionNS_9allocatorIS1_EEEENS2_IS4_EEEENS2_IS6_EEE5clearB8ue170006Ev, symObjAddr: 0x6BF1C, symBinAddr: 0x10006E2BC, symSize: 0x88 }
  - { offsetInCU: 0x28A97, offset: 0x28A97, size: 0x8, addend: 0x0, symName: __ZNSt3__16vectorINS0_INS0_I8PositionNS_9allocatorIS1_EEEENS2_IS4_EEEENS2_IS6_EEE19__move_assign_allocB8ue170006ERS8_NS_17integral_constantIbLb1EEE, symObjAddr: 0x6BFA4, symBinAddr: 0x10006E344, symSize: 0xA4 }
  - { offsetInCU: 0x28AD7, offset: 0x28AD7, size: 0x8, addend: 0x0, symName: __ZNSt3__16vectorIbNS_9allocatorIbEEE10__make_refB8ue170006Em, symObjAddr: 0x6C048, symBinAddr: 0x10006E3E8, symSize: 0x414 }
  - { offsetInCU: 0x28B0E, offset: 0x28B0E, size: 0x8, addend: 0x0, symName: __ZNKSt3__112basic_stringIcNS_11char_traitsIcEENS_9allocatorIcEEE4dataB8ue170006Ev, symObjAddr: 0x6C45C, symBinAddr: 0x10006E7FC, symSize: 0x70 }
  - { offsetInCU: 0x28B34, offset: 0x28B34, size: 0x8, addend: 0x0, symName: __ZNKSt3__112basic_stringIcNS_11char_traitsIcEENS_9allocatorIcEEE13__get_pointerB8ue170006Ev, symObjAddr: 0x6C4E0, symBinAddr: 0x10006E880, symSize: 0x98 }
  - { offsetInCU: 0x28B5A, offset: 0x28B5A, size: 0x8, addend: 0x0, symName: __ZNKSt3__112basic_stringIcNS_11char_traitsIcEENS_9allocatorIcEEE18__get_long_pointerB8ue170006Ev, symObjAddr: 0x6C578, symBinAddr: 0x10006E918, symSize: 0x208 }
  - { offsetInCU: 0x28B80, offset: 0x28B80, size: 0x8, addend: 0x0, symName: __ZNKSt3__112basic_stringIcNS_11char_traitsIcEENS_9allocatorIcEEE19__get_short_pointerB8ue170006Ev, symObjAddr: 0x6C780, symBinAddr: 0x10006EB20, symSize: 0x1CC }
  - { offsetInCU: 0x28BA6, offset: 0x28BA6, size: 0x8, addend: 0x0, symName: __ZNSt3__114pointer_traitsIPKcE10pointer_toB8ue170006ERS1_, symObjAddr: 0x6C94C, symBinAddr: 0x10006ECEC, symSize: 0x14 }
  - { offsetInCU: 0x28BC9, offset: 0x28BC9, size: 0x8, addend: 0x0, symName: __ZNKSt3__16vectorI8PositionNS_9allocatorIS1_EEE11__make_iterB8ue170006EPKS1_, symObjAddr: 0x6C960, symBinAddr: 0x10006ED00, symSize: 0x244 }
  - { offsetInCU: 0x28C00, offset: 0x28C00, size: 0x8, addend: 0x0, symName: __ZNSt3__111__wrap_iterIPK8PositionEC1B8ue170006ES3_, symObjAddr: 0x6CBA4, symBinAddr: 0x10006EF44, symSize: 0x80 }
  - { offsetInCU: 0x28C38, offset: 0x28C38, size: 0x8, addend: 0x0, symName: __ZNSt3__111__wrap_iterIPK8PositionEC2B8ue170006ES3_, symObjAddr: 0x6CC24, symBinAddr: 0x10006EFC4, symSize: 0xC8 }
  - { offsetInCU: 0x28C70, offset: 0x28C70, size: 0x8, addend: 0x0, symName: __ZNKSt3__19basic_iosIcNS_11char_traitsIcEEE4failB8ue170006Ev, symObjAddr: 0x6CCEC, symBinAddr: 0x10006F08C, symSize: 0x124 }
  - { offsetInCU: 0x28C96, offset: 0x28C96, size: 0x8, addend: 0x0, symName: __ZNKSt3__18ios_base4failB8ue170006Ev, symObjAddr: 0x6CE10, symBinAddr: 0x10006F1B0, symSize: 0x170 }
  - { offsetInCU: 0x28CBE, offset: 0x28CBE, size: 0x8, addend: 0x0, symName: __ZNSt3__16vectorINS_12basic_stringIcNS_11char_traitsIcEENS_9allocatorIcEEEENS4_IS6_EEEC2Em, symObjAddr: 0x6CF80, symBinAddr: 0x10006F320, symSize: 0x51C }
  - { offsetInCU: 0x28D14, offset: 0x28D14, size: 0x8, addend: 0x0, symName: __ZNSt3__117__compressed_pairIPNS_12basic_stringIcNS_11char_traitsIcEENS_9allocatorIcEEEENS4_IS6_EEEC1B8ue170006IDnNS_18__default_init_tagEEEOT_OT0_, symObjAddr: 0x6D49C, symBinAddr: 0x10006F83C, symSize: 0x88 }
  - { offsetInCU: 0x28D6C, offset: 0x28D6C, size: 0x8, addend: 0x0, symName: __ZNSt3__16vectorINS_12basic_stringIcNS_11char_traitsIcEENS_9allocatorIcEEEENS4_IS6_EEE16__destroy_vectorC1B8ue170006ERS8_, symObjAddr: 0x6D7E0, symBinAddr: 0x10006FB80, symSize: 0x80 }
  - { offsetInCU: 0x28DA5, offset: 0x28DA5, size: 0x8, addend: 0x0, symName: __ZNSt3__16vectorINS_12basic_stringIcNS_11char_traitsIcEENS_9allocatorIcEEEENS4_IS6_EEE11__vallocateB8ue170006Em, symObjAddr: 0x6D860, symBinAddr: 0x10006FC00, symSize: 0x5F0 }
  - { offsetInCU: 0x28DEF, offset: 0x28DEF, size: 0x8, addend: 0x0, symName: __ZNSt3__16vectorINS_12basic_stringIcNS_11char_traitsIcEENS_9allocatorIcEEEENS4_IS6_EEE18__construct_at_endEm, symObjAddr: 0x6DE50, symBinAddr: 0x1000701F0, symSize: 0x5A0 }
  - { offsetInCU: 0x28E69, offset: 0x28E69, size: 0x8, addend: 0x0, symName: __ZNSt3__128__exception_guard_exceptionsINS_6vectorINS_12basic_stringIcNS_11char_traitsIcEENS_9allocatorIcEEEENS5_IS7_EEE16__destroy_vectorEE10__completeB8ue170006Ev, symObjAddr: 0x6E3F0, symBinAddr: 0x100070790, symSize: 0xD8 }
  - { offsetInCU: 0x28E8F, offset: 0x28E8F, size: 0x8, addend: 0x0, symName: __ZNSt3__128__exception_guard_exceptionsINS_6vectorINS_12basic_stringIcNS_11char_traitsIcEENS_9allocatorIcEEEENS5_IS7_EEE16__destroy_vectorEED1B8ue170006Ev, symObjAddr: 0x6E4C8, symBinAddr: 0x100070868, symSize: 0x78 }
  - { offsetInCU: 0x28EB9, offset: 0x28EB9, size: 0x8, addend: 0x0, symName: __ZNSt3__117__compressed_pairIPNS_12basic_stringIcNS_11char_traitsIcEENS_9allocatorIcEEEENS4_IS6_EEEC2B8ue170006IDnNS_18__default_init_tagEEEOT_OT0_, symObjAddr: 0x6E540, symBinAddr: 0x1000708E0, symSize: 0x140 }
  - { offsetInCU: 0x28F11, offset: 0x28F11, size: 0x8, addend: 0x0, symName: __ZNSt3__122__compressed_pair_elemIPNS_12basic_stringIcNS_11char_traitsIcEENS_9allocatorIcEEEELi0ELb0EEC2B8ue170006IDnvEEOT_, symObjAddr: 0x6E680, symBinAddr: 0x100070A20, symSize: 0xBC }
  - { offsetInCU: 0x28F53, offset: 0x28F53, size: 0x8, addend: 0x0, symName: __ZNSt3__122__compressed_pair_elemINS_9allocatorINS_12basic_stringIcNS_11char_traitsIcEENS1_IcEEEEEELi1ELb1EEC2B8ue170006ENS_18__default_init_tagE, symObjAddr: 0x6E73C, symBinAddr: 0x100070ADC, symSize: 0x84 }
  - { offsetInCU: 0x28F87, offset: 0x28F87, size: 0x8, addend: 0x0, symName: __ZNSt3__19allocatorINS_12basic_stringIcNS_11char_traitsIcEENS0_IcEEEEEC2B8ue170006Ev, symObjAddr: 0x6E7C0, symBinAddr: 0x100070B60, symSize: 0x84 }
  - { offsetInCU: 0x28FB1, offset: 0x28FB1, size: 0x8, addend: 0x0, symName: __ZNSt3__116__non_trivial_ifILb1ENS_9allocatorINS_12basic_stringIcNS_11char_traitsIcEENS1_IcEEEEEEEC2B8ue170006Ev, symObjAddr: 0x6E844, symBinAddr: 0x100070BE4, symSize: 0x54 }
  - { offsetInCU: 0x28FDB, offset: 0x28FDB, size: 0x8, addend: 0x0, symName: __ZNSt3__128__exception_guard_exceptionsINS_6vectorINS_12basic_stringIcNS_11char_traitsIcEENS_9allocatorIcEEEENS5_IS7_EEE16__destroy_vectorEEC1B8ue170006ESA_, symObjAddr: 0x6E898, symBinAddr: 0x100070C38, symSize: 0x28C }
  - { offsetInCU: 0x29018, offset: 0x29018, size: 0x8, addend: 0x0, symName: __ZNSt3__128__exception_guard_exceptionsINS_6vectorINS_12basic_stringIcNS_11char_traitsIcEENS_9allocatorIcEEEENS5_IS7_EEE16__destroy_vectorEEC2B8ue170006ESA_, symObjAddr: 0x6EB24, symBinAddr: 0x100070EC4, symSize: 0x2BC }
  - { offsetInCU: 0x29055, offset: 0x29055, size: 0x8, addend: 0x0, symName: __ZNSt3__16vectorINS_12basic_stringIcNS_11char_traitsIcEENS_9allocatorIcEEEENS4_IS6_EEE16__destroy_vectorC2B8ue170006ERS8_, symObjAddr: 0x6EDE0, symBinAddr: 0x100071180, symSize: 0x108 }
  - { offsetInCU: 0x2908E, offset: 0x2908E, size: 0x8, addend: 0x0, symName: __ZNKSt3__16vectorINS_12basic_stringIcNS_11char_traitsIcEENS_9allocatorIcEEEENS4_IS6_EEE8max_sizeEv, symObjAddr: 0x6EEE8, symBinAddr: 0x100071288, symSize: 0x3B8 }
  - { offsetInCU: 0x290B7, offset: 0x290B7, size: 0x8, addend: 0x0, symName: __ZNKSt3__16vectorINS_12basic_stringIcNS_11char_traitsIcEENS_9allocatorIcEEEENS4_IS6_EEE20__throw_length_errorB8ue170006Ev, symObjAddr: 0x6F2A0, symBinAddr: 0x100071640, symSize: 0x80 }
  - { offsetInCU: 0x290DD, offset: 0x290DD, size: 0x8, addend: 0x0, symName: __ZNSt3__16vectorINS_12basic_stringIcNS_11char_traitsIcEENS_9allocatorIcEEEENS4_IS6_EEE7__allocB8ue170006Ev, symObjAddr: 0x6F5AC, symBinAddr: 0x10007194C, symSize: 0xE4 }
  - { offsetInCU: 0x29103, offset: 0x29103, size: 0x8, addend: 0x0, symName: __ZNSt3__16vectorINS_12basic_stringIcNS_11char_traitsIcEENS_9allocatorIcEEEENS4_IS6_EEE9__end_capB8ue170006Ev, symObjAddr: 0x6F690, symBinAddr: 0x100071A30, symSize: 0x100 }
  - { offsetInCU: 0x29129, offset: 0x29129, size: 0x8, addend: 0x0, symName: __ZNKSt3__16vectorINS_12basic_stringIcNS_11char_traitsIcEENS_9allocatorIcEEEENS4_IS6_EEE14__annotate_newB8ue170006Em, symObjAddr: 0x6F790, symBinAddr: 0x100071B30, symSize: 0x378 }
  - { offsetInCU: 0x29168, offset: 0x29168, size: 0x8, addend: 0x0, symName: __ZNSt3__116allocator_traitsINS_9allocatorINS_12basic_stringIcNS_11char_traitsIcEENS1_IcEEEEEEE8max_sizeB8ue170006IS7_vEEmRKS7_, symObjAddr: 0x6FB08, symBinAddr: 0x100071EA8, symSize: 0x24 }
  - { offsetInCU: 0x29196, offset: 0x29196, size: 0x8, addend: 0x0, symName: __ZNKSt3__16vectorINS_12basic_stringIcNS_11char_traitsIcEENS_9allocatorIcEEEENS4_IS6_EEE7__allocB8ue170006Ev, symObjAddr: 0x6FB2C, symBinAddr: 0x100071ECC, symSize: 0xE4 }
  - { offsetInCU: 0x291BC, offset: 0x291BC, size: 0x8, addend: 0x0, symName: __ZNKSt3__19allocatorINS_12basic_stringIcNS_11char_traitsIcEENS0_IcEEEEE8max_sizeB8ue170006Ev, symObjAddr: 0x6FC10, symBinAddr: 0x100071FB0, symSize: 0x50 }
  - { offsetInCU: 0x291E2, offset: 0x291E2, size: 0x8, addend: 0x0, symName: __ZNKSt3__117__compressed_pairIPNS_12basic_stringIcNS_11char_traitsIcEENS_9allocatorIcEEEENS4_IS6_EEE6secondB8ue170006Ev, symObjAddr: 0x6FC60, symBinAddr: 0x100072000, symSize: 0x108 }
  - { offsetInCU: 0x29208, offset: 0x29208, size: 0x8, addend: 0x0, symName: __ZNKSt3__122__compressed_pair_elemINS_9allocatorINS_12basic_stringIcNS_11char_traitsIcEENS1_IcEEEEEELi1ELb1EE5__getB8ue170006Ev, symObjAddr: 0x6FD68, symBinAddr: 0x100072108, symSize: 0x74 }
  - { offsetInCU: 0x2922E, offset: 0x2922E, size: 0x8, addend: 0x0, symName: __ZNSt3__19allocatorINS_12basic_stringIcNS_11char_traitsIcEENS0_IcEEEEE8allocateB8ue170006Em, symObjAddr: 0x6FDDC, symBinAddr: 0x10007217C, symSize: 0xD0 }
  - { offsetInCU: 0x29262, offset: 0x29262, size: 0x8, addend: 0x0, symName: __ZNSt3__117__compressed_pairIPNS_12basic_stringIcNS_11char_traitsIcEENS_9allocatorIcEEEENS4_IS6_EEE6secondB8ue170006Ev, symObjAddr: 0x6FEAC, symBinAddr: 0x10007224C, symSize: 0x108 }
  - { offsetInCU: 0x29288, offset: 0x29288, size: 0x8, addend: 0x0, symName: __ZNSt3__122__compressed_pair_elemINS_9allocatorINS_12basic_stringIcNS_11char_traitsIcEENS1_IcEEEEEELi1ELb1EE5__getB8ue170006Ev, symObjAddr: 0x6FFB4, symBinAddr: 0x100072354, symSize: 0x74 }
  - { offsetInCU: 0x292AE, offset: 0x292AE, size: 0x8, addend: 0x0, symName: __ZNSt3__117__compressed_pairIPNS_12basic_stringIcNS_11char_traitsIcEENS_9allocatorIcEEEENS4_IS6_EEE5firstB8ue170006Ev, symObjAddr: 0x70028, symBinAddr: 0x1000723C8, symSize: 0x124 }
  - { offsetInCU: 0x292D4, offset: 0x292D4, size: 0x8, addend: 0x0, symName: __ZNSt3__122__compressed_pair_elemIPNS_12basic_stringIcNS_11char_traitsIcEENS_9allocatorIcEEEELi0ELb0EE5__getB8ue170006Ev, symObjAddr: 0x7014C, symBinAddr: 0x1000724EC, symSize: 0xAC }
  - { offsetInCU: 0x292FA, offset: 0x292FA, size: 0x8, addend: 0x0, symName: __ZNKSt3__16vectorINS_12basic_stringIcNS_11char_traitsIcEENS_9allocatorIcEEEENS4_IS6_EEE31__annotate_contiguous_containerEPKvSA_SA_SA_, symObjAddr: 0x701F8, symBinAddr: 0x100072598, symSize: 0x9C }
  - { offsetInCU: 0x2935C, offset: 0x2935C, size: 0x8, addend: 0x0, symName: __ZNKSt3__16vectorINS_12basic_stringIcNS_11char_traitsIcEENS_9allocatorIcEEEENS4_IS6_EEE4dataB8ue170006Ev, symObjAddr: 0x70294, symBinAddr: 0x100072634, symSize: 0xB0 }
  - { offsetInCU: 0x29382, offset: 0x29382, size: 0x8, addend: 0x0, symName: __ZNKSt3__16vectorINS_12basic_stringIcNS_11char_traitsIcEENS_9allocatorIcEEEENS4_IS6_EEE8capacityB8ue170006Ev, symObjAddr: 0x70344, symBinAddr: 0x1000726E4, symSize: 0x144 }
  - { offsetInCU: 0x293A8, offset: 0x293A8, size: 0x8, addend: 0x0, symName: __ZNKSt3__16vectorINS_12basic_stringIcNS_11char_traitsIcEENS_9allocatorIcEEEENS4_IS6_EEE9__end_capB8ue170006Ev, symObjAddr: 0x7049C, symBinAddr: 0x10007283C, symSize: 0x100 }
  - { offsetInCU: 0x293CE, offset: 0x293CE, size: 0x8, addend: 0x0, symName: __ZNKSt3__117__compressed_pairIPNS_12basic_stringIcNS_11char_traitsIcEENS_9allocatorIcEEEENS4_IS6_EEE5firstB8ue170006Ev, symObjAddr: 0x7059C, symBinAddr: 0x10007293C, symSize: 0x124 }
  - { offsetInCU: 0x293F4, offset: 0x293F4, size: 0x8, addend: 0x0, symName: __ZNKSt3__122__compressed_pair_elemIPNS_12basic_stringIcNS_11char_traitsIcEENS_9allocatorIcEEEELi0ELb0EE5__getB8ue170006Ev, symObjAddr: 0x706C0, symBinAddr: 0x100072A60, symSize: 0xAC }
  - { offsetInCU: 0x29433, offset: 0x29433, size: 0x8, addend: 0x0, symName: __ZNSt3__16vectorINS_12basic_stringIcNS_11char_traitsIcEENS_9allocatorIcEEEENS4_IS6_EEE21_ConstructTransactionC1B8ue170006ERS8_m, symObjAddr: 0x7076C, symBinAddr: 0x100072B0C, symSize: 0x88 }
  - { offsetInCU: 0x2947B, offset: 0x2947B, size: 0x8, addend: 0x0, symName: __ZNSt3__116allocator_traitsINS_9allocatorINS_12basic_stringIcNS_11char_traitsIcEENS1_IcEEEEEEE9constructB8ue170006IS6_JEvEEvRS7_PT_DpOT0_, symObjAddr: 0x707F4, symBinAddr: 0x100072B94, symSize: 0x2C }
  - { offsetInCU: 0x294BD, offset: 0x294BD, size: 0x8, addend: 0x0, symName: __ZNSt3__16vectorINS_12basic_stringIcNS_11char_traitsIcEENS_9allocatorIcEEEENS4_IS6_EEE21_ConstructTransactionD1B8ue170006Ev, symObjAddr: 0x70820, symBinAddr: 0x100072BC0, symSize: 0x78 }
  - { offsetInCU: 0x294E7, offset: 0x294E7, size: 0x8, addend: 0x0, symName: __ZNSt3__16vectorINS_12basic_stringIcNS_11char_traitsIcEENS_9allocatorIcEEEENS4_IS6_EEE21_ConstructTransactionC2B8ue170006ERS8_m, symObjAddr: 0x70898, symBinAddr: 0x100072C38, symSize: 0x3E0 }
  - { offsetInCU: 0x2952F, offset: 0x2952F, size: 0x8, addend: 0x0, symName: __ZNKSt3__16vectorINS_12basic_stringIcNS_11char_traitsIcEENS_9allocatorIcEEEENS4_IS6_EEE19__annotate_increaseB8ue170006Em, symObjAddr: 0x70C78, symBinAddr: 0x100073018, symSize: 0x46C }
  - { offsetInCU: 0x29564, offset: 0x29564, size: 0x8, addend: 0x0, symName: __ZNKSt3__16vectorINS_12basic_stringIcNS_11char_traitsIcEENS_9allocatorIcEEEENS4_IS6_EEE4sizeB8ue170006Ev, symObjAddr: 0x710E4, symBinAddr: 0x100073484, symSize: 0xF8 }
  - { offsetInCU: 0x2958A, offset: 0x2958A, size: 0x8, addend: 0x0, symName: __ZNSt3__19allocatorINS_12basic_stringIcNS_11char_traitsIcEENS0_IcEEEEE9constructB8ue170006IS5_JEEEvPT_DpOT0_, symObjAddr: 0x711DC, symBinAddr: 0x10007357C, symSize: 0x9C }
  - { offsetInCU: 0x295CC, offset: 0x295CC, size: 0x8, addend: 0x0, symName: __ZNSt3__16vectorINS_12basic_stringIcNS_11char_traitsIcEENS_9allocatorIcEEEENS4_IS6_EEE21_ConstructTransactionD2B8ue170006Ev, symObjAddr: 0x71278, symBinAddr: 0x100073618, symSize: 0x390 }
  - { offsetInCU: 0x295F6, offset: 0x295F6, size: 0x8, addend: 0x0, symName: __ZNKSt3__16vectorINS_12basic_stringIcNS_11char_traitsIcEENS_9allocatorIcEEEENS4_IS6_EEE17__annotate_shrinkB8ue170006Em, symObjAddr: 0x71608, symBinAddr: 0x1000739A8, symSize: 0x378 }
  - { offsetInCU: 0x2962B, offset: 0x2962B, size: 0x8, addend: 0x0, symName: __ZNSt3__128__exception_guard_exceptionsINS_6vectorINS_12basic_stringIcNS_11char_traitsIcEENS_9allocatorIcEEEENS5_IS7_EEE16__destroy_vectorEED2B8ue170006Ev, symObjAddr: 0x71980, symBinAddr: 0x100073D20, symSize: 0x17C }
  - { offsetInCU: 0x29655, offset: 0x29655, size: 0x8, addend: 0x0, symName: __ZNSt3__16vectorINS_12basic_stringIcNS_11char_traitsIcEENS_9allocatorIcEEEENS4_IS6_EEE16__destroy_vectorclB8ue170006Ev, symObjAddr: 0x71AFC, symBinAddr: 0x100073E9C, symSize: 0x43C }
  - { offsetInCU: 0x2967B, offset: 0x2967B, size: 0x8, addend: 0x0, symName: __ZNSt3__16vectorINS_12basic_stringIcNS_11char_traitsIcEENS_9allocatorIcEEEENS4_IS6_EEE7__clearB8ue170006Ev, symObjAddr: 0x71F38, symBinAddr: 0x1000742D8, symSize: 0xB0 }
  - { offsetInCU: 0x296A1, offset: 0x296A1, size: 0x8, addend: 0x0, symName: __ZNKSt3__16vectorINS_12basic_stringIcNS_11char_traitsIcEENS_9allocatorIcEEEENS4_IS6_EEE17__annotate_deleteB8ue170006Ev, symObjAddr: 0x71FE8, symBinAddr: 0x100074388, symSize: 0x388 }
  - { offsetInCU: 0x296C7, offset: 0x296C7, size: 0x8, addend: 0x0, symName: __ZNSt3__116allocator_traitsINS_9allocatorINS_12basic_stringIcNS_11char_traitsIcEENS1_IcEEEEEEE10deallocateB8ue170006ERS7_PS6_m, symObjAddr: 0x72370, symBinAddr: 0x100074710, symSize: 0x34 }
  - { offsetInCU: 0x29709, offset: 0x29709, size: 0x8, addend: 0x0, symName: __ZNSt3__16vectorINS_12basic_stringIcNS_11char_traitsIcEENS_9allocatorIcEEEENS4_IS6_EEE22__base_destruct_at_endB8ue170006EPS6_, symObjAddr: 0x723A4, symBinAddr: 0x100074744, symSize: 0x1FC }
  - { offsetInCU: 0x2974D, offset: 0x2974D, size: 0x8, addend: 0x0, symName: __ZNSt3__116allocator_traitsINS_9allocatorINS_12basic_stringIcNS_11char_traitsIcEENS1_IcEEEEEEE7destroyB8ue170006IS6_vEEvRS7_PT_, symObjAddr: 0x725A0, symBinAddr: 0x100074940, symSize: 0x2C }
  - { offsetInCU: 0x2978A, offset: 0x2978A, size: 0x8, addend: 0x0, symName: __ZNSt3__19allocatorINS_12basic_stringIcNS_11char_traitsIcEENS0_IcEEEEE7destroyB8ue170006EPS5_, symObjAddr: 0x725CC, symBinAddr: 0x10007496C, symSize: 0x9C }
  - { offsetInCU: 0x297BE, offset: 0x297BE, size: 0x8, addend: 0x0, symName: __ZNSt3__19allocatorINS_12basic_stringIcNS_11char_traitsIcEENS0_IcEEEEE10deallocateB8ue170006EPS5_m, symObjAddr: 0x72668, symBinAddr: 0x100074A08, symSize: 0x7C }
  - { offsetInCU: 0x29800, offset: 0x29800, size: 0x8, addend: 0x0, symName: __ZNSt3__16vectorINS_12basic_stringIcNS_11char_traitsIcEENS_9allocatorIcEEEENS4_IS6_EEED2B8ue170006Ev, symObjAddr: 0x726E4, symBinAddr: 0x100074A84, symSize: 0x294 }
  - { offsetInCU: 0x2982B, offset: 0x2982B, size: 0x8, addend: 0x0, symName: __ZNSt3__16vectorINS0_INS_12basic_stringIcNS_11char_traitsIcEENS_9allocatorIcEEEENS4_IS6_EEEENS4_IS8_EEE8__appendEmRKS8_, symObjAddr: 0x72978, symBinAddr: 0x100074D18, symSize: 0x57C }
  - { offsetInCU: 0x2989D, offset: 0x2989D, size: 0x8, addend: 0x0, symName: __ZNSt3__16vectorINS0_INS_12basic_stringIcNS_11char_traitsIcEENS_9allocatorIcEEEENS4_IS6_EEEENS4_IS8_EEE17__destruct_at_endB8ue170006EPS8_, symObjAddr: 0x72EF4, symBinAddr: 0x100075294, symSize: 0x90 }
  - { offsetInCU: 0x298E1, offset: 0x298E1, size: 0x8, addend: 0x0, symName: __ZNSt3__16vectorINS0_INS_12basic_stringIcNS_11char_traitsIcEENS_9allocatorIcEEEENS4_IS6_EEEENS4_IS8_EEE9__end_capB8ue170006Ev, symObjAddr: 0x72F84, symBinAddr: 0x100075324, symSize: 0x100 }
  - { offsetInCU: 0x29907, offset: 0x29907, size: 0x8, addend: 0x0, symName: __ZNSt3__16vectorINS0_INS_12basic_stringIcNS_11char_traitsIcEENS_9allocatorIcEEEENS4_IS6_EEEENS4_IS8_EEE18__construct_at_endEmRKS8_, symObjAddr: 0x73084, symBinAddr: 0x100075424, symSize: 0x5F4 }
  - { offsetInCU: 0x29991, offset: 0x29991, size: 0x8, addend: 0x0, symName: __ZNKSt3__16vectorINS0_INS_12basic_stringIcNS_11char_traitsIcEENS_9allocatorIcEEEENS4_IS6_EEEENS4_IS8_EEE11__recommendB8ue170006Em, symObjAddr: 0x73678, symBinAddr: 0x100075A18, symSize: 0x45C }
  - { offsetInCU: 0x299ED, offset: 0x299ED, size: 0x8, addend: 0x0, symName: __ZNSt3__114__split_bufferINS_6vectorINS_12basic_stringIcNS_11char_traitsIcEENS_9allocatorIcEEEENS5_IS7_EEEERNS5_IS9_EEEC1EmmSB_, symObjAddr: 0x73AD4, symBinAddr: 0x100075E74, symSize: 0x90 }
  - { offsetInCU: 0x29A43, offset: 0x29A43, size: 0x8, addend: 0x0, symName: __ZNSt3__114__split_bufferINS_6vectorINS_12basic_stringIcNS_11char_traitsIcEENS_9allocatorIcEEEENS5_IS7_EEEERNS5_IS9_EEE18__construct_at_endEmRKS9_, symObjAddr: 0x73B64, symBinAddr: 0x100075F04, symSize: 0x5A0 }
  - { offsetInCU: 0x29A9D, offset: 0x29A9D, size: 0x8, addend: 0x0, symName: __ZNSt3__114__split_bufferINS_6vectorINS_12basic_stringIcNS_11char_traitsIcEENS_9allocatorIcEEEENS5_IS7_EEEERNS5_IS9_EEED1Ev, symObjAddr: 0x74960, symBinAddr: 0x100076D00, symSize: 0x78 }
  - { offsetInCU: 0x29AC9, offset: 0x29AC9, size: 0x8, addend: 0x0, symName: __ZNSt3__117__compressed_pairIPNS_6vectorINS_12basic_stringIcNS_11char_traitsIcEENS_9allocatorIcEEEENS5_IS7_EEEENS5_IS9_EEE5firstB8ue170006Ev, symObjAddr: 0x749D8, symBinAddr: 0x100076D78, symSize: 0x124 }
  - { offsetInCU: 0x29AEF, offset: 0x29AEF, size: 0x8, addend: 0x0, symName: __ZNSt3__122__compressed_pair_elemIPNS_6vectorINS_12basic_stringIcNS_11char_traitsIcEENS_9allocatorIcEEEENS5_IS7_EEEELi0ELb0EE5__getB8ue170006Ev, symObjAddr: 0x74AFC, symBinAddr: 0x100076E9C, symSize: 0xAC }
  - { offsetInCU: 0x29B2E, offset: 0x29B2E, size: 0x8, addend: 0x0, symName: __ZNSt3__16vectorINS0_INS_12basic_stringIcNS_11char_traitsIcEENS_9allocatorIcEEEENS4_IS6_EEEENS4_IS8_EEE21_ConstructTransactionC1B8ue170006ERSA_m, symObjAddr: 0x74BA8, symBinAddr: 0x100076F48, symSize: 0x88 }
  - { offsetInCU: 0x29B76, offset: 0x29B76, size: 0x8, addend: 0x0, symName: __ZNSt3__116allocator_traitsINS_9allocatorINS_6vectorINS_12basic_stringIcNS_11char_traitsIcEENS1_IcEEEENS1_IS7_EEEEEEE9constructB8ue170006IS9_JRKS9_EvEEvRSA_PT_DpOT0_, symObjAddr: 0x74C30, symBinAddr: 0x100076FD0, symSize: 0x8C }
  - { offsetInCU: 0x29BCD, offset: 0x29BCD, size: 0x8, addend: 0x0, symName: __ZNSt3__16vectorINS0_INS_12basic_stringIcNS_11char_traitsIcEENS_9allocatorIcEEEENS4_IS6_EEEENS4_IS8_EEE21_ConstructTransactionD1B8ue170006Ev, symObjAddr: 0x74CBC, symBinAddr: 0x10007705C, symSize: 0x78 }
  - { offsetInCU: 0x29BF7, offset: 0x29BF7, size: 0x8, addend: 0x0, symName: __ZNSt3__16vectorINS0_INS_12basic_stringIcNS_11char_traitsIcEENS_9allocatorIcEEEENS4_IS6_EEEENS4_IS8_EEE21_ConstructTransactionC2B8ue170006ERSA_m, symObjAddr: 0x74D34, symBinAddr: 0x1000770D4, symSize: 0x3E0 }
  - { offsetInCU: 0x29C3F, offset: 0x29C3F, size: 0x8, addend: 0x0, symName: __ZNKSt3__16vectorINS0_INS_12basic_stringIcNS_11char_traitsIcEENS_9allocatorIcEEEENS4_IS6_EEEENS4_IS8_EEE19__annotate_increaseB8ue170006Em, symObjAddr: 0x75114, symBinAddr: 0x1000774B4, symSize: 0x46C }
  - { offsetInCU: 0x29C74, offset: 0x29C74, size: 0x8, addend: 0x0, symName: __ZNSt3__19allocatorINS_6vectorINS_12basic_stringIcNS_11char_traitsIcEENS0_IcEEEENS0_IS6_EEEEE9constructB8ue170006IS8_JRKS8_EEEvPT_DpOT0_, symObjAddr: 0x75580, symBinAddr: 0x100077920, symSize: 0xEC }
  - { offsetInCU: 0x29CCA, offset: 0x29CCA, size: 0x8, addend: 0x0, symName: __ZNSt3__16vectorINS_12basic_stringIcNS_11char_traitsIcEENS_9allocatorIcEEEENS4_IS6_EEEC1ERKS8_, symObjAddr: 0x7566C, symBinAddr: 0x100077A0C, symSize: 0x80 }
  - { offsetInCU: 0x29D05, offset: 0x29D05, size: 0x8, addend: 0x0, symName: __ZNSt3__16vectorINS_12basic_stringIcNS_11char_traitsIcEENS_9allocatorIcEEEENS4_IS6_EEEC2ERKS8_, symObjAddr: 0x756EC, symBinAddr: 0x100077A8C, symSize: 0x4C0 }
  - { offsetInCU: 0x29D42, offset: 0x29D42, size: 0x8, addend: 0x0, symName: __ZNSt3__116allocator_traitsINS_9allocatorINS_12basic_stringIcNS_11char_traitsIcEENS1_IcEEEEEEE37select_on_container_copy_constructionB8ue170006IS7_vvEES7_RKS7_, symObjAddr: 0x75BAC, symBinAddr: 0x100077F4C, symSize: 0x10 }
  - { offsetInCU: 0x29D76, offset: 0x29D76, size: 0x8, addend: 0x0, symName: __ZNSt3__117__compressed_pairIPNS_12basic_stringIcNS_11char_traitsIcEENS_9allocatorIcEEEENS4_IS6_EEEC1B8ue170006IDnS8_EEOT_OT0_, symObjAddr: 0x75BBC, symBinAddr: 0x100077F5C, symSize: 0x88 }
  - { offsetInCU: 0x29DCE, offset: 0x29DCE, size: 0x8, addend: 0x0, symName: __ZNSt3__16vectorINS_12basic_stringIcNS_11char_traitsIcEENS_9allocatorIcEEEENS4_IS6_EEE16__init_with_sizeB8ue170006IPS6_SA_EEvT_T0_m, symObjAddr: 0x75C44, symBinAddr: 0x100077FE4, symSize: 0x3EC }
  - { offsetInCU: 0x29E4A, offset: 0x29E4A, size: 0x8, addend: 0x0, symName: __ZNSt3__117__compressed_pairIPNS_12basic_stringIcNS_11char_traitsIcEENS_9allocatorIcEEEENS4_IS6_EEEC2B8ue170006IDnS8_EEOT_OT0_, symObjAddr: 0x76030, symBinAddr: 0x1000783D0, symSize: 0x170 }
  - { offsetInCU: 0x29EA2, offset: 0x29EA2, size: 0x8, addend: 0x0, symName: __ZNSt3__122__compressed_pair_elemINS_9allocatorINS_12basic_stringIcNS_11char_traitsIcEENS1_IcEEEEEELi1ELb1EEC2B8ue170006IS7_vEEOT_, symObjAddr: 0x761A0, symBinAddr: 0x100078540, symSize: 0x58 }
  - { offsetInCU: 0x29EE4, offset: 0x29EE4, size: 0x8, addend: 0x0, symName: __ZNSt3__16vectorINS_12basic_stringIcNS_11char_traitsIcEENS_9allocatorIcEEEENS4_IS6_EEE18__construct_at_endIPS6_SA_EEvT_T0_m, symObjAddr: 0x761F8, symBinAddr: 0x100078598, symSize: 0x494 }
  - { offsetInCU: 0x29F80, offset: 0x29F80, size: 0x8, addend: 0x0, symName: __ZNSt3__14pairIPNS_12basic_stringIcNS_11char_traitsIcEENS_9allocatorIcEEEES7_EC1B8ue170006IS7_S7_LPv0EEEOT_OT0_, symObjAddr: 0x77708, symBinAddr: 0x100079AA8, symSize: 0x88 }
  - { offsetInCU: 0x29FDE, offset: 0x29FDE, size: 0x8, addend: 0x0, symName: __ZNSt3__14pairIPNS_12basic_stringIcNS_11char_traitsIcEENS_9allocatorIcEEEES7_EC2B8ue170006IS7_S7_LPv0EEEOT_OT0_, symObjAddr: 0x77790, symBinAddr: 0x100079B30, symSize: 0x210 }
  - { offsetInCU: 0x2A03C, offset: 0x2A03C, size: 0x8, addend: 0x0, symName: __ZNSt3__129_AllocatorDestroyRangeReverseINS_9allocatorINS_12basic_stringIcNS_11char_traitsIcEENS1_IcEEEEEEPS6_EC1B8ue170006ERS7_RS8_SB_, symObjAddr: 0x77BDC, symBinAddr: 0x100079F7C, symSize: 0x90 }
  - { offsetInCU: 0x2A093, offset: 0x2A093, size: 0x8, addend: 0x0, symName: __ZNSt3__116allocator_traitsINS_9allocatorINS_12basic_stringIcNS_11char_traitsIcEENS1_IcEEEEEEE9constructB8ue170006IS6_JRS6_EvEEvRS7_PT_DpOT0_, symObjAddr: 0x77C6C, symBinAddr: 0x10007A00C, symSize: 0x8C }
  - { offsetInCU: 0x2A0EA, offset: 0x2A0EA, size: 0x8, addend: 0x0, symName: __ZNSt3__128__exception_guard_exceptionsINS_29_AllocatorDestroyRangeReverseINS_9allocatorINS_12basic_stringIcNS_11char_traitsIcEENS2_IcEEEEEEPS7_EEE10__completeB8ue170006Ev, symObjAddr: 0x77CF8, symBinAddr: 0x10007A098, symSize: 0xD8 }
  - { offsetInCU: 0x2A110, offset: 0x2A110, size: 0x8, addend: 0x0, symName: __ZNSt3__128__exception_guard_exceptionsINS_29_AllocatorDestroyRangeReverseINS_9allocatorINS_12basic_stringIcNS_11char_traitsIcEENS2_IcEEEEEEPS7_EEED1B8ue170006Ev, symObjAddr: 0x77DD0, symBinAddr: 0x10007A170, symSize: 0x78 }
  - { offsetInCU: 0x2A13A, offset: 0x2A13A, size: 0x8, addend: 0x0, symName: __ZNSt3__128__exception_guard_exceptionsINS_29_AllocatorDestroyRangeReverseINS_9allocatorINS_12basic_stringIcNS_11char_traitsIcEENS2_IcEEEEEEPS7_EEEC1B8ue170006ESA_, symObjAddr: 0x77E48, symBinAddr: 0x10007A1E8, symSize: 0x84 }
  - { offsetInCU: 0x2A173, offset: 0x2A173, size: 0x8, addend: 0x0, symName: __ZNSt3__128__exception_guard_exceptionsINS_29_AllocatorDestroyRangeReverseINS_9allocatorINS_12basic_stringIcNS_11char_traitsIcEENS2_IcEEEEEEPS7_EEEC2B8ue170006ESA_, symObjAddr: 0x77ECC, symBinAddr: 0x10007A26C, symSize: 0xF8 }
  - { offsetInCU: 0x2A1AC, offset: 0x2A1AC, size: 0x8, addend: 0x0, symName: __ZNSt3__129_AllocatorDestroyRangeReverseINS_9allocatorINS_12basic_stringIcNS_11char_traitsIcEENS1_IcEEEEEEPS6_EC2B8ue170006ERS7_RS8_SB_, symObjAddr: 0x77FC4, symBinAddr: 0x10007A364, symSize: 0x20C }
  - { offsetInCU: 0x2A203, offset: 0x2A203, size: 0x8, addend: 0x0, symName: __ZNSt3__19allocatorINS_12basic_stringIcNS_11char_traitsIcEENS0_IcEEEEE9constructB8ue170006IS5_JRS5_EEEvPT_DpOT0_, symObjAddr: 0x781D0, symBinAddr: 0x10007A570, symSize: 0xEC }
  - { offsetInCU: 0x2A259, offset: 0x2A259, size: 0x8, addend: 0x0, symName: __ZNSt3__128__exception_guard_exceptionsINS_29_AllocatorDestroyRangeReverseINS_9allocatorINS_12basic_stringIcNS_11char_traitsIcEENS2_IcEEEEEEPS7_EEED2B8ue170006Ev, symObjAddr: 0x782BC, symBinAddr: 0x10007A65C, symSize: 0x17C }
  - { offsetInCU: 0x2A283, offset: 0x2A283, size: 0x8, addend: 0x0, symName: __ZNKSt3__129_AllocatorDestroyRangeReverseINS_9allocatorINS_12basic_stringIcNS_11char_traitsIcEENS1_IcEEEEEEPS6_EclB8ue170006Ev, symObjAddr: 0x78438, symBinAddr: 0x10007A7D8, symSize: 0x40C }
  - { offsetInCU: 0x2A2AA, offset: 0x2A2AA, size: 0x8, addend: 0x0, symName: __ZNSt3__116reverse_iteratorIPNS_12basic_stringIcNS_11char_traitsIcEENS_9allocatorIcEEEEEC1B8ue170006ES7_, symObjAddr: 0x78B20, symBinAddr: 0x10007AEC0, symSize: 0x80 }
  - { offsetInCU: 0x2A2E2, offset: 0x2A2E2, size: 0x8, addend: 0x0, symName: __ZNSt3__116reverse_iteratorIPNS_12basic_stringIcNS_11char_traitsIcEENS_9allocatorIcEEEEEppB8ue170006Ev, symObjAddr: 0x78CA8, symBinAddr: 0x10007B048, symSize: 0x1B0 }
  - { offsetInCU: 0x2A308, offset: 0x2A308, size: 0x8, addend: 0x0, symName: __ZNKSt3__116reverse_iteratorIPNS_12basic_stringIcNS_11char_traitsIcEENS_9allocatorIcEEEEE4baseB8ue170006Ev, symObjAddr: 0x78E58, symBinAddr: 0x10007B1F8, symSize: 0xB0 }
  - { offsetInCU: 0x2A333, offset: 0x2A333, size: 0x8, addend: 0x0, symName: __ZNSt3__119__to_address_helperINS_16reverse_iteratorIPNS_12basic_stringIcNS_11char_traitsIcEENS_9allocatorIcEEEEEEvE6__callB8ue170006ERKS9_, symObjAddr: 0x78F08, symBinAddr: 0x10007B2A8, symSize: 0x70 }
  - { offsetInCU: 0x2A356, offset: 0x2A356, size: 0x8, addend: 0x0, symName: __ZNKSt3__116reverse_iteratorIPNS_12basic_stringIcNS_11char_traitsIcEENS_9allocatorIcEEEEEptB8ue170006Ev, symObjAddr: 0x78F78, symBinAddr: 0x10007B318, symSize: 0x6C }
  - { offsetInCU: 0x2A37C, offset: 0x2A37C, size: 0x8, addend: 0x0, symName: __ZNKSt3__116reverse_iteratorIPNS_12basic_stringIcNS_11char_traitsIcEENS_9allocatorIcEEEEEdeB8ue170006Ev, symObjAddr: 0x78FE4, symBinAddr: 0x10007B384, symSize: 0x184 }
  - { offsetInCU: 0x2A3B0, offset: 0x2A3B0, size: 0x8, addend: 0x0, symName: __ZNSt3__116reverse_iteratorIPNS_12basic_stringIcNS_11char_traitsIcEENS_9allocatorIcEEEEEC2B8ue170006ES7_, symObjAddr: 0x79168, symBinAddr: 0x10007B508, symSize: 0x10C }
  - { offsetInCU: 0x2A3E8, offset: 0x2A3E8, size: 0x8, addend: 0x0, symName: __ZNSt3__118__unwrap_iter_implIPNS_12basic_stringIcNS_11char_traitsIcEENS_9allocatorIcEEEELb1EE8__unwrapB8ue170006ES7_, symObjAddr: 0x79274, symBinAddr: 0x10007B614, symSize: 0x24 }
  - { offsetInCU: 0x2A40B, offset: 0x2A40B, size: 0x8, addend: 0x0, symName: __ZNSt3__118__unwrap_iter_implIPNS_12basic_stringIcNS_11char_traitsIcEENS_9allocatorIcEEEELb1EE8__rewrapB8ue170006ES7_S7_, symObjAddr: 0x79298, symBinAddr: 0x10007B638, symSize: 0x140 }
  - { offsetInCU: 0x2A43C, offset: 0x2A43C, size: 0x8, addend: 0x0, symName: __ZNSt3__16vectorINS0_INS_12basic_stringIcNS_11char_traitsIcEENS_9allocatorIcEEEENS4_IS6_EEEENS4_IS8_EEE21_ConstructTransactionD2B8ue170006Ev, symObjAddr: 0x793D8, symBinAddr: 0x10007B778, symSize: 0x390 }
  - { offsetInCU: 0x2A466, offset: 0x2A466, size: 0x8, addend: 0x0, symName: __ZNKSt3__16vectorINS0_INS_12basic_stringIcNS_11char_traitsIcEENS_9allocatorIcEEEENS4_IS6_EEEENS4_IS8_EEE17__annotate_shrinkB8ue170006Em, symObjAddr: 0x79768, symBinAddr: 0x10007BB08, symSize: 0x378 }
  - { offsetInCU: 0x2A49B, offset: 0x2A49B, size: 0x8, addend: 0x0, symName: __ZNKSt3__16vectorINS0_INS_12basic_stringIcNS_11char_traitsIcEENS_9allocatorIcEEEENS4_IS6_EEEENS4_IS8_EEE8max_sizeEv, symObjAddr: 0x79AE0, symBinAddr: 0x10007BE80, symSize: 0x3B8 }
  - { offsetInCU: 0x2A4C4, offset: 0x2A4C4, size: 0x8, addend: 0x0, symName: __ZNKSt3__16vectorINS0_INS_12basic_stringIcNS_11char_traitsIcEENS_9allocatorIcEEEENS4_IS6_EEEENS4_IS8_EEE20__throw_length_errorB8ue170006Ev, symObjAddr: 0x79E98, symBinAddr: 0x10007C238, symSize: 0x80 }
  - { offsetInCU: 0x2A4F4, offset: 0x2A4F4, size: 0x8, addend: 0x0, symName: __ZNSt3__116allocator_traitsINS_9allocatorINS_6vectorINS_12basic_stringIcNS_11char_traitsIcEENS1_IcEEEENS1_IS7_EEEEEEE8max_sizeB8ue170006ISA_vEEmRKSA_, symObjAddr: 0x79F18, symBinAddr: 0x10007C2B8, symSize: 0x24 }
  - { offsetInCU: 0x2A522, offset: 0x2A522, size: 0x8, addend: 0x0, symName: __ZNKSt3__16vectorINS0_INS_12basic_stringIcNS_11char_traitsIcEENS_9allocatorIcEEEENS4_IS6_EEEENS4_IS8_EEE7__allocB8ue170006Ev, symObjAddr: 0x79F3C, symBinAddr: 0x10007C2DC, symSize: 0xE4 }
  - { offsetInCU: 0x2A548, offset: 0x2A548, size: 0x8, addend: 0x0, symName: __ZNKSt3__19allocatorINS_6vectorINS_12basic_stringIcNS_11char_traitsIcEENS0_IcEEEENS0_IS6_EEEEE8max_sizeB8ue170006Ev, symObjAddr: 0x7A020, symBinAddr: 0x10007C3C0, symSize: 0x50 }
  - { offsetInCU: 0x2A56E, offset: 0x2A56E, size: 0x8, addend: 0x0, symName: __ZNKSt3__117__compressed_pairIPNS_6vectorINS_12basic_stringIcNS_11char_traitsIcEENS_9allocatorIcEEEENS5_IS7_EEEENS5_IS9_EEE6secondB8ue170006Ev, symObjAddr: 0x7A070, symBinAddr: 0x10007C410, symSize: 0x108 }
  - { offsetInCU: 0x2A594, offset: 0x2A594, size: 0x8, addend: 0x0, symName: __ZNKSt3__122__compressed_pair_elemINS_9allocatorINS_6vectorINS_12basic_stringIcNS_11char_traitsIcEENS1_IcEEEENS1_IS7_EEEEEELi1ELb1EE5__getB8ue170006Ev, symObjAddr: 0x7A178, symBinAddr: 0x10007C518, symSize: 0x74 }
  - { offsetInCU: 0x2A5BA, offset: 0x2A5BA, size: 0x8, addend: 0x0, symName: __ZNSt3__114__split_bufferINS_6vectorINS_12basic_stringIcNS_11char_traitsIcEENS_9allocatorIcEEEENS5_IS7_EEEERNS5_IS9_EEEC2EmmSB_, symObjAddr: 0x7A1EC, symBinAddr: 0x10007C58C, symSize: 0x7E8 }
  - { offsetInCU: 0x2A635, offset: 0x2A635, size: 0x8, addend: 0x0, symName: __ZNSt3__117__compressed_pairIPNS_6vectorINS_12basic_stringIcNS_11char_traitsIcEENS_9allocatorIcEEEENS5_IS7_EEEERNS5_IS9_EEEC1B8ue170006IDnSC_EEOT_OT0_, symObjAddr: 0x7A9D4, symBinAddr: 0x10007CD74, symSize: 0x88 }
  - { offsetInCU: 0x2A68D, offset: 0x2A68D, size: 0x8, addend: 0x0, symName: __ZNSt3__114__split_bufferINS_6vectorINS_12basic_stringIcNS_11char_traitsIcEENS_9allocatorIcEEEENS5_IS7_EEEERNS5_IS9_EEE7__allocB8ue170006Ev, symObjAddr: 0x7ACE8, symBinAddr: 0x10007D088, symSize: 0xE4 }
  - { offsetInCU: 0x2A6B3, offset: 0x2A6B3, size: 0x8, addend: 0x0, symName: __ZNSt3__114__split_bufferINS_6vectorINS_12basic_stringIcNS_11char_traitsIcEENS_9allocatorIcEEEENS5_IS7_EEEERNS5_IS9_EEE9__end_capB8ue170006Ev, symObjAddr: 0x7ADCC, symBinAddr: 0x10007D16C, symSize: 0x100 }
  - { offsetInCU: 0x2A6D9, offset: 0x2A6D9, size: 0x8, addend: 0x0, symName: __ZNSt3__117__compressed_pairIPNS_6vectorINS_12basic_stringIcNS_11char_traitsIcEENS_9allocatorIcEEEENS5_IS7_EEEERNS5_IS9_EEEC2B8ue170006IDnSC_EEOT_OT0_, symObjAddr: 0x7AECC, symBinAddr: 0x10007D26C, symSize: 0x198 }
  - { offsetInCU: 0x2A731, offset: 0x2A731, size: 0x8, addend: 0x0, symName: __ZNSt3__122__compressed_pair_elemIRNS_9allocatorINS_6vectorINS_12basic_stringIcNS_11char_traitsIcEENS1_IcEEEENS1_IS7_EEEEEELi1ELb0EEC2B8ue170006ISB_vEEOT_, symObjAddr: 0x7B064, symBinAddr: 0x10007D404, symSize: 0xEC }
  - { offsetInCU: 0x2A773, offset: 0x2A773, size: 0x8, addend: 0x0, symName: __ZNSt3__19allocatorINS_6vectorINS_12basic_stringIcNS_11char_traitsIcEENS0_IcEEEENS0_IS6_EEEEE8allocateB8ue170006Em, symObjAddr: 0x7B150, symBinAddr: 0x10007D4F0, symSize: 0xD0 }
  - { offsetInCU: 0x2A7A7, offset: 0x2A7A7, size: 0x8, addend: 0x0, symName: __ZNSt3__117__compressed_pairIPNS_6vectorINS_12basic_stringIcNS_11char_traitsIcEENS_9allocatorIcEEEENS5_IS7_EEEERNS5_IS9_EEE6secondB8ue170006Ev, symObjAddr: 0x7B220, symBinAddr: 0x10007D5C0, symSize: 0x110 }
  - { offsetInCU: 0x2A7CD, offset: 0x2A7CD, size: 0x8, addend: 0x0, symName: __ZNSt3__122__compressed_pair_elemIRNS_9allocatorINS_6vectorINS_12basic_stringIcNS_11char_traitsIcEENS1_IcEEEENS1_IS7_EEEEEELi1ELb0EE5__getB8ue170006Ev, symObjAddr: 0x7B330, symBinAddr: 0x10007D6D0, symSize: 0xD8 }
  - { offsetInCU: 0x2A7F3, offset: 0x2A7F3, size: 0x8, addend: 0x0, symName: __ZNSt3__117__compressed_pairIPNS_6vectorINS_12basic_stringIcNS_11char_traitsIcEENS_9allocatorIcEEEENS5_IS7_EEEERNS5_IS9_EEE5firstB8ue170006Ev, symObjAddr: 0x7B408, symBinAddr: 0x10007D7A8, symSize: 0x124 }
  - { offsetInCU: 0x2A823, offset: 0x2A823, size: 0x8, addend: 0x0, symName: __ZNSt3__114__split_bufferINS_6vectorINS_12basic_stringIcNS_11char_traitsIcEENS_9allocatorIcEEEENS5_IS7_EEEERNS5_IS9_EEE21_ConstructTransactionC1B8ue170006EPPS9_m, symObjAddr: 0x7B52C, symBinAddr: 0x10007D8CC, symSize: 0x88 }
  - { offsetInCU: 0x2A869, offset: 0x2A869, size: 0x8, addend: 0x0, symName: __ZNSt3__114__split_bufferINS_6vectorINS_12basic_stringIcNS_11char_traitsIcEENS_9allocatorIcEEEENS5_IS7_EEEERNS5_IS9_EEE21_ConstructTransactionD1B8ue170006Ev, symObjAddr: 0x7B5B4, symBinAddr: 0x10007D954, symSize: 0x78 }
  - { offsetInCU: 0x2A893, offset: 0x2A893, size: 0x8, addend: 0x0, symName: __ZNSt3__114__split_bufferINS_6vectorINS_12basic_stringIcNS_11char_traitsIcEENS_9allocatorIcEEEENS5_IS7_EEEERNS5_IS9_EEE21_ConstructTransactionC2B8ue170006EPPS9_m, symObjAddr: 0x7B62C, symBinAddr: 0x10007D9CC, symSize: 0x32C }
  - { offsetInCU: 0x2A8D9, offset: 0x2A8D9, size: 0x8, addend: 0x0, symName: __ZNSt3__114__split_bufferINS_6vectorINS_12basic_stringIcNS_11char_traitsIcEENS_9allocatorIcEEEENS5_IS7_EEEERNS5_IS9_EEE21_ConstructTransactionD2B8ue170006Ev, symObjAddr: 0x7B958, symBinAddr: 0x10007DCF8, symSize: 0x174 }
  - { offsetInCU: 0x2A903, offset: 0x2A903, size: 0x8, addend: 0x0, symName: __ZNSt3__116reverse_iteratorIPNS_6vectorINS_12basic_stringIcNS_11char_traitsIcEENS_9allocatorIcEEEENS5_IS7_EEEEEC1B8ue170006ESA_, symObjAddr: 0x7C0A4, symBinAddr: 0x10007E444, symSize: 0x80 }
  - { offsetInCU: 0x2A93B, offset: 0x2A93B, size: 0x8, addend: 0x0, symName: __ZNKSt3__116reverse_iteratorIPNS_6vectorINS_12basic_stringIcNS_11char_traitsIcEENS_9allocatorIcEEEENS5_IS7_EEEEE4baseB8ue170006Ev, symObjAddr: 0x7C124, symBinAddr: 0x10007E4C4, symSize: 0xB0 }
  - { offsetInCU: 0x2A961, offset: 0x2A961, size: 0x8, addend: 0x0, symName: __ZNKSt3__16vectorINS0_INS_12basic_stringIcNS_11char_traitsIcEENS_9allocatorIcEEEENS4_IS6_EEEENS4_IS8_EEE14__annotate_newB8ue170006Em, symObjAddr: 0x7C394, symBinAddr: 0x10007E734, symSize: 0x378 }
  - { offsetInCU: 0x2A996, offset: 0x2A996, size: 0x8, addend: 0x0, symName: __ZNSt3__129_AllocatorDestroyRangeReverseINS_9allocatorINS_6vectorINS_12basic_stringIcNS_11char_traitsIcEENS1_IcEEEENS1_IS7_EEEEEENS_16reverse_iteratorIPS9_EEEC1B8ue170006ERSA_RSD_SG_, symObjAddr: 0x7C948, symBinAddr: 0x10007ECE8, symSize: 0x90 }
  - { offsetInCU: 0x2A9ED, offset: 0x2A9ED, size: 0x8, addend: 0x0, symName: __ZNSt3__116allocator_traitsINS_9allocatorINS_6vectorINS_12basic_stringIcNS_11char_traitsIcEENS1_IcEEEENS1_IS7_EEEEEEE9constructB8ue170006IS9_JS9_EvEEvRSA_PT_DpOT0_, symObjAddr: 0x7CA74, symBinAddr: 0x10007EE14, symSize: 0x8C }
  - { offsetInCU: 0x2AA44, offset: 0x2AA44, size: 0x8, addend: 0x0, symName: __ZNKSt3__116reverse_iteratorIPNS_6vectorINS_12basic_stringIcNS_11char_traitsIcEENS_9allocatorIcEEEENS5_IS7_EEEEEdeB8ue170006Ev, symObjAddr: 0x7CB6C, symBinAddr: 0x10007EF0C, symSize: 0x184 }
  - { offsetInCU: 0x2AA78, offset: 0x2AA78, size: 0x8, addend: 0x0, symName: __ZNSt3__116reverse_iteratorIPNS_6vectorINS_12basic_stringIcNS_11char_traitsIcEENS_9allocatorIcEEEENS5_IS7_EEEEEppB8ue170006Ev, symObjAddr: 0x7CCF0, symBinAddr: 0x10007F090, symSize: 0x1B0 }
  - { offsetInCU: 0x2AA9E, offset: 0x2AA9E, size: 0x8, addend: 0x0, symName: __ZNSt3__128__exception_guard_exceptionsINS_29_AllocatorDestroyRangeReverseINS_9allocatorINS_6vectorINS_12basic_stringIcNS_11char_traitsIcEENS2_IcEEEENS2_IS8_EEEEEENS_16reverse_iteratorIPSA_EEEEE10__completeB8ue170006Ev, symObjAddr: 0x7CEA0, symBinAddr: 0x10007F240, symSize: 0xD8 }
  - { offsetInCU: 0x2AAC4, offset: 0x2AAC4, size: 0x8, addend: 0x0, symName: __ZNSt3__128__exception_guard_exceptionsINS_29_AllocatorDestroyRangeReverseINS_9allocatorINS_6vectorINS_12basic_stringIcNS_11char_traitsIcEENS2_IcEEEENS2_IS8_EEEEEENS_16reverse_iteratorIPSA_EEEEED1B8ue170006Ev, symObjAddr: 0x7CF78, symBinAddr: 0x10007F318, symSize: 0x78 }
  - { offsetInCU: 0x2AAEE, offset: 0x2AAEE, size: 0x8, addend: 0x0, symName: __ZNSt3__128__exception_guard_exceptionsINS_29_AllocatorDestroyRangeReverseINS_9allocatorINS_6vectorINS_12basic_stringIcNS_11char_traitsIcEENS2_IcEEEENS2_IS8_EEEEEENS_16reverse_iteratorIPSA_EEEEEC1B8ue170006ESF_, symObjAddr: 0x7CFF0, symBinAddr: 0x10007F390, symSize: 0x84 }
  - { offsetInCU: 0x2AB27, offset: 0x2AB27, size: 0x8, addend: 0x0, symName: __ZNSt3__128__exception_guard_exceptionsINS_29_AllocatorDestroyRangeReverseINS_9allocatorINS_6vectorINS_12basic_stringIcNS_11char_traitsIcEENS2_IcEEEENS2_IS8_EEEEEENS_16reverse_iteratorIPSA_EEEEEC2B8ue170006ESF_, symObjAddr: 0x7D074, symBinAddr: 0x10007F414, symSize: 0xF8 }
  - { offsetInCU: 0x2AB60, offset: 0x2AB60, size: 0x8, addend: 0x0, symName: __ZNSt3__129_AllocatorDestroyRangeReverseINS_9allocatorINS_6vectorINS_12basic_stringIcNS_11char_traitsIcEENS1_IcEEEENS1_IS7_EEEEEENS_16reverse_iteratorIPS9_EEEC2B8ue170006ERSA_RSD_SG_, symObjAddr: 0x7D16C, symBinAddr: 0x10007F50C, symSize: 0x20C }
  - { offsetInCU: 0x2ABB7, offset: 0x2ABB7, size: 0x8, addend: 0x0, symName: __ZNSt3__19allocatorINS_6vectorINS_12basic_stringIcNS_11char_traitsIcEENS0_IcEEEENS0_IS6_EEEEE9constructB8ue170006IS8_JS8_EEEvPT_DpOT0_, symObjAddr: 0x7D378, symBinAddr: 0x10007F718, symSize: 0xEC }
  - { offsetInCU: 0x2AC0D, offset: 0x2AC0D, size: 0x8, addend: 0x0, symName: __ZNSt3__16vectorINS_12basic_stringIcNS_11char_traitsIcEENS_9allocatorIcEEEENS4_IS6_EEEC1B8ue170006EOS8_, symObjAddr: 0x7D464, symBinAddr: 0x10007F804, symSize: 0x80 }
  - { offsetInCU: 0x2AC48, offset: 0x2AC48, size: 0x8, addend: 0x0, symName: __ZNSt3__16vectorINS_12basic_stringIcNS_11char_traitsIcEENS_9allocatorIcEEEENS4_IS6_EEEC2B8ue170006EOS8_, symObjAddr: 0x7D4E4, symBinAddr: 0x10007F884, symSize: 0x77C }
  - { offsetInCU: 0x2AC8A, offset: 0x2AC8A, size: 0x8, addend: 0x0, symName: __ZNSt3__119__to_address_helperINS_16reverse_iteratorIPNS_6vectorINS_12basic_stringIcNS_11char_traitsIcEENS_9allocatorIcEEEENS6_IS8_EEEEEEvE6__callB8ue170006ERKSC_, symObjAddr: 0x7DC60, symBinAddr: 0x100080000, symSize: 0x70 }
  - { offsetInCU: 0x2ACAD, offset: 0x2ACAD, size: 0x8, addend: 0x0, symName: __ZNKSt3__116reverse_iteratorIPNS_6vectorINS_12basic_stringIcNS_11char_traitsIcEENS_9allocatorIcEEEENS5_IS7_EEEEEptB8ue170006Ev, symObjAddr: 0x7DCD0, symBinAddr: 0x100080070, symSize: 0x6C }
  - { offsetInCU: 0x2ACD3, offset: 0x2ACD3, size: 0x8, addend: 0x0, symName: __ZNSt3__128__exception_guard_exceptionsINS_29_AllocatorDestroyRangeReverseINS_9allocatorINS_6vectorINS_12basic_stringIcNS_11char_traitsIcEENS2_IcEEEENS2_IS8_EEEEEENS_16reverse_iteratorIPSA_EEEEED2B8ue170006Ev, symObjAddr: 0x7DD3C, symBinAddr: 0x1000800DC, symSize: 0x17C }
  - { offsetInCU: 0x2ACFD, offset: 0x2ACFD, size: 0x8, addend: 0x0, symName: __ZNKSt3__129_AllocatorDestroyRangeReverseINS_9allocatorINS_6vectorINS_12basic_stringIcNS_11char_traitsIcEENS1_IcEEEENS1_IS7_EEEEEENS_16reverse_iteratorIPS9_EEEclB8ue170006Ev, symObjAddr: 0x7DEB8, symBinAddr: 0x100080258, symSize: 0x418 }
  - { offsetInCU: 0x2AD24, offset: 0x2AD24, size: 0x8, addend: 0x0, symName: __ZNSt3__116reverse_iteratorINS0_IPNS_6vectorINS_12basic_stringIcNS_11char_traitsIcEENS_9allocatorIcEEEENS5_IS7_EEEEEEEC1B8ue170006ESB_, symObjAddr: 0x7E474, symBinAddr: 0x100080814, symSize: 0x29C }
  - { offsetInCU: 0x2AD61, offset: 0x2AD61, size: 0x8, addend: 0x0, symName: __ZNSt3__116reverse_iteratorINS0_IPNS_6vectorINS_12basic_stringIcNS_11char_traitsIcEENS_9allocatorIcEEEENS5_IS7_EEEEEEEppB8ue170006Ev, symObjAddr: 0x7EAA0, symBinAddr: 0x100080E40, symSize: 0x100 }
  - { offsetInCU: 0x2AD87, offset: 0x2AD87, size: 0x8, addend: 0x0, symName: __ZNKSt3__116reverse_iteratorINS0_IPNS_6vectorINS_12basic_stringIcNS_11char_traitsIcEENS_9allocatorIcEEEENS5_IS7_EEEEEEE4baseB8ue170006Ev, symObjAddr: 0x7EBA0, symBinAddr: 0x100080F40, symSize: 0x258 }
  - { offsetInCU: 0x2ADB3, offset: 0x2ADB3, size: 0x8, addend: 0x0, symName: __ZNSt3__119__to_address_helperINS_16reverse_iteratorINS1_IPNS_6vectorINS_12basic_stringIcNS_11char_traitsIcEENS_9allocatorIcEEEENS6_IS8_EEEEEEEEvE6__callB8ue170006ERKSD_, symObjAddr: 0x7EDF8, symBinAddr: 0x100081198, symSize: 0x70 }
  - { offsetInCU: 0x2ADD6, offset: 0x2ADD6, size: 0x8, addend: 0x0, symName: __ZNKSt3__116reverse_iteratorINS0_IPNS_6vectorINS_12basic_stringIcNS_11char_traitsIcEENS_9allocatorIcEEEENS5_IS7_EEEEEEEptB8ue170006Ev, symObjAddr: 0x7EE68, symBinAddr: 0x100081208, symSize: 0x6C }
  - { offsetInCU: 0x2ADFC, offset: 0x2ADFC, size: 0x8, addend: 0x0, symName: __ZNKSt3__116reverse_iteratorINS0_IPNS_6vectorINS_12basic_stringIcNS_11char_traitsIcEENS_9allocatorIcEEEENS5_IS7_EEEEEEEdeB8ue170006Ev, symObjAddr: 0x7EED4, symBinAddr: 0x100081274, symSize: 0x2C4 }
  - { offsetInCU: 0x2AE35, offset: 0x2AE35, size: 0x8, addend: 0x0, symName: __ZNSt3__116reverse_iteratorIPNS_6vectorINS_12basic_stringIcNS_11char_traitsIcEENS_9allocatorIcEEEENS5_IS7_EEEEEmmB8ue170006Ev, symObjAddr: 0x7F198, symBinAddr: 0x100081538, symSize: 0x1B0 }
  - { offsetInCU: 0x2AE5B, offset: 0x2AE5B, size: 0x8, addend: 0x0, symName: __ZNSt3__116reverse_iteratorINS0_IPNS_6vectorINS_12basic_stringIcNS_11char_traitsIcEENS_9allocatorIcEEEENS5_IS7_EEEEEEEC2B8ue170006ESB_, symObjAddr: 0x7F348, symBinAddr: 0x1000816E8, symSize: 0x284 }
  - { offsetInCU: 0x2AE98, offset: 0x2AE98, size: 0x8, addend: 0x0, symName: __ZNSt3__116reverse_iteratorIPNS_6vectorINS_12basic_stringIcNS_11char_traitsIcEENS_9allocatorIcEEEENS5_IS7_EEEEEC2B8ue170006ESA_, symObjAddr: 0x7F5CC, symBinAddr: 0x10008196C, symSize: 0x10C }
  - { offsetInCU: 0x2AED0, offset: 0x2AED0, size: 0x8, addend: 0x0, symName: __ZNSt3__114__split_bufferINS_6vectorINS_12basic_stringIcNS_11char_traitsIcEENS_9allocatorIcEEEENS5_IS7_EEEERNS5_IS9_EEED2Ev, symObjAddr: 0x7F6D8, symBinAddr: 0x100081A78, symSize: 0x16C }
  - { offsetInCU: 0x2AEFC, offset: 0x2AEFC, size: 0x8, addend: 0x0, symName: __ZNSt3__114__split_bufferINS_6vectorINS_12basic_stringIcNS_11char_traitsIcEENS_9allocatorIcEEEENS5_IS7_EEEERNS5_IS9_EEE5clearB8ue170006Ev, symObjAddr: 0x7F844, symBinAddr: 0x100081BE4, symSize: 0xB4 }
  - { offsetInCU: 0x2AF22, offset: 0x2AF22, size: 0x8, addend: 0x0, symName: __ZNKSt3__114__split_bufferINS_6vectorINS_12basic_stringIcNS_11char_traitsIcEENS_9allocatorIcEEEENS5_IS7_EEEERNS5_IS9_EEE8capacityB8ue170006Ev, symObjAddr: 0x7F8F8, symBinAddr: 0x100081C98, symSize: 0x144 }
  - { offsetInCU: 0x2AF48, offset: 0x2AF48, size: 0x8, addend: 0x0, symName: __ZNSt3__114__split_bufferINS_6vectorINS_12basic_stringIcNS_11char_traitsIcEENS_9allocatorIcEEEENS5_IS7_EEEERNS5_IS9_EEE17__destruct_at_endB8ue170006EPS9_, symObjAddr: 0x7FA3C, symBinAddr: 0x100081DDC, symSize: 0x74 }
  - { offsetInCU: 0x2AF7C, offset: 0x2AF7C, size: 0x8, addend: 0x0, symName: __ZNSt3__114__split_bufferINS_6vectorINS_12basic_stringIcNS_11char_traitsIcEENS_9allocatorIcEEEENS5_IS7_EEEERNS5_IS9_EEE17__destruct_at_endB8ue170006EPS9_NS_17integral_constantIbLb0EEE, symObjAddr: 0x7FAB0, symBinAddr: 0x100081E50, symSize: 0x224 }
  - { offsetInCU: 0x2AFBC, offset: 0x2AFBC, size: 0x8, addend: 0x0, symName: __ZNKSt3__114__split_bufferINS_6vectorINS_12basic_stringIcNS_11char_traitsIcEENS_9allocatorIcEEEENS5_IS7_EEEERNS5_IS9_EEE9__end_capB8ue170006Ev, symObjAddr: 0x7FCD4, symBinAddr: 0x100082074, symSize: 0x100 }
  - { offsetInCU: 0x2AFE2, offset: 0x2AFE2, size: 0x8, addend: 0x0, symName: __ZNKSt3__117__compressed_pairIPNS_6vectorINS_12basic_stringIcNS_11char_traitsIcEENS_9allocatorIcEEEENS5_IS7_EEEERNS5_IS9_EEE5firstB8ue170006Ev, symObjAddr: 0x7FDD4, symBinAddr: 0x100082174, symSize: 0x124 }
  - { offsetInCU: 0x2B008, offset: 0x2B008, size: 0x8, addend: 0x0, symName: __ZNSt3__111char_traitsIcE4findB8ue170006EPKcmRS2_, symObjAddr: 0x80274, symBinAddr: 0x100082614, symSize: 0xEC }
  - { offsetInCU: 0x2B047, offset: 0x2B047, size: 0x8, addend: 0x0, symName: __ZNSt3__19allocatorIcEC1B8ue170006Ev, symObjAddr: 0x808B0, symBinAddr: 0x100082C50, symSize: 0x5C }
  - { offsetInCU: 0x2B071, offset: 0x2B071, size: 0x8, addend: 0x0, symName: __ZNKSt3__112basic_stringIcNS_11char_traitsIcEENS_9allocatorIcEEE15__get_long_sizeB8ue170006Ev, symObjAddr: 0x8090C, symBinAddr: 0x100082CAC, symSize: 0x210 }
  - { offsetInCU: 0x2B097, offset: 0x2B097, size: 0x8, addend: 0x0, symName: __ZNKSt3__112basic_stringIcNS_11char_traitsIcEENS_9allocatorIcEEE16__get_short_sizeB8ue170006Ev, symObjAddr: 0x80B1C, symBinAddr: 0x100082EBC, symSize: 0x1F8 }
  - { offsetInCU: 0x2B0BD, offset: 0x2B0BD, size: 0x8, addend: 0x0, symName: __ZNSt3__112basic_stringIcNS_11char_traitsIcEENS_9allocatorIcEEEC2B8ue170006Emc, symObjAddr: 0x80D14, symBinAddr: 0x1000830B4, symSize: 0x26C }
  - { offsetInCU: 0x2B108, offset: 0x2B108, size: 0x8, addend: 0x0, symName: __ZNSt3__16vectorINS_12basic_stringIcNS_11char_traitsIcEENS_9allocatorIcEEEENS4_IS6_EEEC2EmRKS6_, symObjAddr: 0x80F80, symBinAddr: 0x100083320, symSize: 0x574 }
  - { offsetInCU: 0x2B16E, offset: 0x2B16E, size: 0x8, addend: 0x0, symName: __ZNSt3__16vectorINS_12basic_stringIcNS_11char_traitsIcEENS_9allocatorIcEEEENS4_IS6_EEE18__construct_at_endEmRKS6_, symObjAddr: 0x814F4, symBinAddr: 0x100083894, symSize: 0x5F4 }
  - { offsetInCU: 0x2B1F8, offset: 0x2B1F8, size: 0x8, addend: 0x0, symName: __ZNSt3__116allocator_traitsINS_9allocatorINS_12basic_stringIcNS_11char_traitsIcEENS1_IcEEEEEEE9constructB8ue170006IS6_JRKS6_EvEEvRS7_PT_DpOT0_, symObjAddr: 0x81AE8, symBinAddr: 0x100083E88, symSize: 0x8C }
  - { offsetInCU: 0x2B24F, offset: 0x2B24F, size: 0x8, addend: 0x0, symName: __ZNSt3__19allocatorINS_12basic_stringIcNS_11char_traitsIcEENS0_IcEEEEE9constructB8ue170006IS5_JRKS5_EEEvPT_DpOT0_, symObjAddr: 0x81B74, symBinAddr: 0x100083F14, symSize: 0xEC }
  - { offsetInCU: 0x2B2A5, offset: 0x2B2A5, size: 0x8, addend: 0x0, symName: __ZNSt3__16vectorINS_4pairIiiEENS_9allocatorIS2_EEEC2B8ue170006ESt16initializer_listIS2_E, symObjAddr: 0x81C60, symBinAddr: 0x100084000, symSize: 0x5B0 }
  - { offsetInCU: 0x2B2FE, offset: 0x2B2FE, size: 0x8, addend: 0x0, symName: __ZNSt3__117__compressed_pairIPNS_4pairIiiEENS_9allocatorIS2_EEEC1B8ue170006IDnNS_18__default_init_tagEEEOT_OT0_, symObjAddr: 0x82210, symBinAddr: 0x1000845B0, symSize: 0x88 }
  - { offsetInCU: 0x2B356, offset: 0x2B356, size: 0x8, addend: 0x0, symName: __ZNSt3__16vectorINS_4pairIiiEENS_9allocatorIS2_EEE16__destroy_vectorC1B8ue170006ERS5_, symObjAddr: 0x82554, symBinAddr: 0x1000848F4, symSize: 0x80 }
  - { offsetInCU: 0x2B38F, offset: 0x2B38F, size: 0x8, addend: 0x0, symName: __ZNKSt16initializer_listINSt3__14pairIiiEEE4sizeB8ue170006Ev, symObjAddr: 0x825D4, symBinAddr: 0x100084974, symSize: 0xB0 }
  - { offsetInCU: 0x2B3B5, offset: 0x2B3B5, size: 0x8, addend: 0x0, symName: __ZNSt3__16vectorINS_4pairIiiEENS_9allocatorIS2_EEE11__vallocateB8ue170006Em, symObjAddr: 0x82684, symBinAddr: 0x100084A24, symSize: 0x5E8 }
  - { offsetInCU: 0x2B3FF, offset: 0x2B3FF, size: 0x8, addend: 0x0, symName: __ZNSt3__16vectorINS_4pairIiiEENS_9allocatorIS2_EEE18__construct_at_endIPKS2_S8_EEvT_T0_m, symObjAddr: 0x82C6C, symBinAddr: 0x10008500C, symSize: 0x494 }
  - { offsetInCU: 0x2B47D, offset: 0x2B47D, size: 0x8, addend: 0x0, symName: __ZNKSt16initializer_listINSt3__14pairIiiEEE5beginB8ue170006Ev, symObjAddr: 0x83100, symBinAddr: 0x1000854A0, symSize: 0xAC }
  - { offsetInCU: 0x2B4A3, offset: 0x2B4A3, size: 0x8, addend: 0x0, symName: __ZNKSt16initializer_listINSt3__14pairIiiEEE3endB8ue170006Ev, symObjAddr: 0x831AC, symBinAddr: 0x10008554C, symSize: 0x1C0 }
  - { offsetInCU: 0x2B4C9, offset: 0x2B4C9, size: 0x8, addend: 0x0, symName: __ZNSt3__128__exception_guard_exceptionsINS_6vectorINS_4pairIiiEENS_9allocatorIS3_EEE16__destroy_vectorEE10__completeB8ue170006Ev, symObjAddr: 0x8336C, symBinAddr: 0x10008570C, symSize: 0xD8 }
  - { offsetInCU: 0x2B4EF, offset: 0x2B4EF, size: 0x8, addend: 0x0, symName: __ZNSt3__128__exception_guard_exceptionsINS_6vectorINS_4pairIiiEENS_9allocatorIS3_EEE16__destroy_vectorEED1B8ue170006Ev, symObjAddr: 0x83444, symBinAddr: 0x1000857E4, symSize: 0x78 }
  - { offsetInCU: 0x2B519, offset: 0x2B519, size: 0x8, addend: 0x0, symName: __ZNSt3__117__compressed_pairIPNS_4pairIiiEENS_9allocatorIS2_EEEC2B8ue170006IDnNS_18__default_init_tagEEEOT_OT0_, symObjAddr: 0x834BC, symBinAddr: 0x10008585C, symSize: 0x140 }
  - { offsetInCU: 0x2B571, offset: 0x2B571, size: 0x8, addend: 0x0, symName: __ZNSt3__122__compressed_pair_elemIPNS_4pairIiiEELi0ELb0EEC2B8ue170006IDnvEEOT_, symObjAddr: 0x835FC, symBinAddr: 0x10008599C, symSize: 0xBC }
  - { offsetInCU: 0x2B5B3, offset: 0x2B5B3, size: 0x8, addend: 0x0, symName: __ZNSt3__122__compressed_pair_elemINS_9allocatorINS_4pairIiiEEEELi1ELb1EEC2B8ue170006ENS_18__default_init_tagE, symObjAddr: 0x836B8, symBinAddr: 0x100085A58, symSize: 0x84 }
  - { offsetInCU: 0x2B5E7, offset: 0x2B5E7, size: 0x8, addend: 0x0, symName: __ZNSt3__19allocatorINS_4pairIiiEEEC2B8ue170006Ev, symObjAddr: 0x8373C, symBinAddr: 0x100085ADC, symSize: 0x84 }
  - { offsetInCU: 0x2B611, offset: 0x2B611, size: 0x8, addend: 0x0, symName: __ZNSt3__116__non_trivial_ifILb1ENS_9allocatorINS_4pairIiiEEEEEC2B8ue170006Ev, symObjAddr: 0x837C0, symBinAddr: 0x100085B60, symSize: 0x54 }
  - { offsetInCU: 0x2B63B, offset: 0x2B63B, size: 0x8, addend: 0x0, symName: __ZNSt3__128__exception_guard_exceptionsINS_6vectorINS_4pairIiiEENS_9allocatorIS3_EEE16__destroy_vectorEEC1B8ue170006ES7_, symObjAddr: 0x83814, symBinAddr: 0x100085BB4, symSize: 0x28C }
  - { offsetInCU: 0x2B678, offset: 0x2B678, size: 0x8, addend: 0x0, symName: __ZNSt3__128__exception_guard_exceptionsINS_6vectorINS_4pairIiiEENS_9allocatorIS3_EEE16__destroy_vectorEEC2B8ue170006ES7_, symObjAddr: 0x83AA0, symBinAddr: 0x100085E40, symSize: 0x2BC }
  - { offsetInCU: 0x2B6B5, offset: 0x2B6B5, size: 0x8, addend: 0x0, symName: __ZNSt3__16vectorINS_4pairIiiEENS_9allocatorIS2_EEE16__destroy_vectorC2B8ue170006ERS5_, symObjAddr: 0x83D5C, symBinAddr: 0x1000860FC, symSize: 0x108 }
  - { offsetInCU: 0x2B6EE, offset: 0x2B6EE, size: 0x8, addend: 0x0, symName: __ZNKSt3__16vectorINS_4pairIiiEENS_9allocatorIS2_EEE8max_sizeEv, symObjAddr: 0x83E64, symBinAddr: 0x100086204, symSize: 0x3B8 }
  - { offsetInCU: 0x2B717, offset: 0x2B717, size: 0x8, addend: 0x0, symName: __ZNKSt3__16vectorINS_4pairIiiEENS_9allocatorIS2_EEE20__throw_length_errorB8ue170006Ev, symObjAddr: 0x8421C, symBinAddr: 0x1000865BC, symSize: 0x80 }
  - { offsetInCU: 0x2B73D, offset: 0x2B73D, size: 0x8, addend: 0x0, symName: __ZNSt3__16vectorINS_4pairIiiEENS_9allocatorIS2_EEE7__allocB8ue170006Ev, symObjAddr: 0x84528, symBinAddr: 0x1000868C8, symSize: 0xE4 }
  - { offsetInCU: 0x2B763, offset: 0x2B763, size: 0x8, addend: 0x0, symName: __ZNSt3__16vectorINS_4pairIiiEENS_9allocatorIS2_EEE9__end_capB8ue170006Ev, symObjAddr: 0x8460C, symBinAddr: 0x1000869AC, symSize: 0x100 }
  - { offsetInCU: 0x2B789, offset: 0x2B789, size: 0x8, addend: 0x0, symName: __ZNKSt3__16vectorINS_4pairIiiEENS_9allocatorIS2_EEE14__annotate_newB8ue170006Em, symObjAddr: 0x8470C, symBinAddr: 0x100086AAC, symSize: 0x360 }
  - { offsetInCU: 0x2B7C8, offset: 0x2B7C8, size: 0x8, addend: 0x0, symName: __ZNSt3__116allocator_traitsINS_9allocatorINS_4pairIiiEEEEE8max_sizeB8ue170006IS4_vEEmRKS4_, symObjAddr: 0x84A6C, symBinAddr: 0x100086E0C, symSize: 0x24 }
  - { offsetInCU: 0x2B7F6, offset: 0x2B7F6, size: 0x8, addend: 0x0, symName: __ZNKSt3__16vectorINS_4pairIiiEENS_9allocatorIS2_EEE7__allocB8ue170006Ev, symObjAddr: 0x84A90, symBinAddr: 0x100086E30, symSize: 0xE4 }
  - { offsetInCU: 0x2B81C, offset: 0x2B81C, size: 0x8, addend: 0x0, symName: __ZNKSt3__19allocatorINS_4pairIiiEEE8max_sizeB8ue170006Ev, symObjAddr: 0x84B74, symBinAddr: 0x100086F14, symSize: 0x4C }
  - { offsetInCU: 0x2B842, offset: 0x2B842, size: 0x8, addend: 0x0, symName: __ZNKSt3__117__compressed_pairIPNS_4pairIiiEENS_9allocatorIS2_EEE6secondB8ue170006Ev, symObjAddr: 0x84BC0, symBinAddr: 0x100086F60, symSize: 0x108 }
  - { offsetInCU: 0x2B868, offset: 0x2B868, size: 0x8, addend: 0x0, symName: __ZNKSt3__122__compressed_pair_elemINS_9allocatorINS_4pairIiiEEEELi1ELb1EE5__getB8ue170006Ev, symObjAddr: 0x84CC8, symBinAddr: 0x100087068, symSize: 0x74 }
  - { offsetInCU: 0x2B88E, offset: 0x2B88E, size: 0x8, addend: 0x0, symName: __ZNSt3__19allocatorINS_4pairIiiEEE8allocateB8ue170006Em, symObjAddr: 0x84D3C, symBinAddr: 0x1000870DC, symSize: 0xCC }
  - { offsetInCU: 0x2B8C2, offset: 0x2B8C2, size: 0x8, addend: 0x0, symName: __ZNSt3__117__compressed_pairIPNS_4pairIiiEENS_9allocatorIS2_EEE6secondB8ue170006Ev, symObjAddr: 0x84E08, symBinAddr: 0x1000871A8, symSize: 0x108 }
  - { offsetInCU: 0x2B8E8, offset: 0x2B8E8, size: 0x8, addend: 0x0, symName: __ZNSt3__122__compressed_pair_elemINS_9allocatorINS_4pairIiiEEEELi1ELb1EE5__getB8ue170006Ev, symObjAddr: 0x84F10, symBinAddr: 0x1000872B0, symSize: 0x74 }
  - { offsetInCU: 0x2B90E, offset: 0x2B90E, size: 0x8, addend: 0x0, symName: __ZNSt3__117__compressed_pairIPNS_4pairIiiEENS_9allocatorIS2_EEE5firstB8ue170006Ev, symObjAddr: 0x84F84, symBinAddr: 0x100087324, symSize: 0x124 }
  - { offsetInCU: 0x2B934, offset: 0x2B934, size: 0x8, addend: 0x0, symName: __ZNSt3__122__compressed_pair_elemIPNS_4pairIiiEELi0ELb0EE5__getB8ue170006Ev, symObjAddr: 0x850A8, symBinAddr: 0x100087448, symSize: 0xAC }
  - { offsetInCU: 0x2B95A, offset: 0x2B95A, size: 0x8, addend: 0x0, symName: __ZNKSt3__16vectorINS_4pairIiiEENS_9allocatorIS2_EEE31__annotate_contiguous_containerEPKvS7_S7_S7_, symObjAddr: 0x85154, symBinAddr: 0x1000874F4, symSize: 0x9C }
  - { offsetInCU: 0x2B9BC, offset: 0x2B9BC, size: 0x8, addend: 0x0, symName: __ZNKSt3__16vectorINS_4pairIiiEENS_9allocatorIS2_EEE4dataB8ue170006Ev, symObjAddr: 0x851F0, symBinAddr: 0x100087590, symSize: 0xB0 }
  - { offsetInCU: 0x2B9E2, offset: 0x2B9E2, size: 0x8, addend: 0x0, symName: __ZNKSt3__16vectorINS_4pairIiiEENS_9allocatorIS2_EEE8capacityB8ue170006Ev, symObjAddr: 0x852A0, symBinAddr: 0x100087640, symSize: 0x144 }
  - { offsetInCU: 0x2BA08, offset: 0x2BA08, size: 0x8, addend: 0x0, symName: __ZNKSt3__16vectorINS_4pairIiiEENS_9allocatorIS2_EEE9__end_capB8ue170006Ev, symObjAddr: 0x853F8, symBinAddr: 0x100087798, symSize: 0x100 }
  - { offsetInCU: 0x2BA2E, offset: 0x2BA2E, size: 0x8, addend: 0x0, symName: __ZNKSt3__117__compressed_pairIPNS_4pairIiiEENS_9allocatorIS2_EEE5firstB8ue170006Ev, symObjAddr: 0x854F8, symBinAddr: 0x100087898, symSize: 0x124 }
  - { offsetInCU: 0x2BA54, offset: 0x2BA54, size: 0x8, addend: 0x0, symName: __ZNKSt3__122__compressed_pair_elemIPNS_4pairIiiEELi0ELb0EE5__getB8ue170006Ev, symObjAddr: 0x8561C, symBinAddr: 0x1000879BC, symSize: 0xAC }
  - { offsetInCU: 0x2BA93, offset: 0x2BA93, size: 0x8, addend: 0x0, symName: __ZNSt3__16vectorINS_4pairIiiEENS_9allocatorIS2_EEE21_ConstructTransactionC1B8ue170006ERS5_m, symObjAddr: 0x856C8, symBinAddr: 0x100087A68, symSize: 0x88 }
  - { offsetInCU: 0x2BADB, offset: 0x2BADB, size: 0x8, addend: 0x0, symName: __ZNSt3__16vectorINS_4pairIiiEENS_9allocatorIS2_EEE21_ConstructTransactionD1B8ue170006Ev, symObjAddr: 0x85A84, symBinAddr: 0x100087E24, symSize: 0x78 }
  - { offsetInCU: 0x2BB05, offset: 0x2BB05, size: 0x8, addend: 0x0, symName: __ZNSt3__16vectorINS_4pairIiiEENS_9allocatorIS2_EEE21_ConstructTransactionC2B8ue170006ERS5_m, symObjAddr: 0x85AFC, symBinAddr: 0x100087E9C, symSize: 0x3D8 }
  - { offsetInCU: 0x2BB4D, offset: 0x2BB4D, size: 0x8, addend: 0x0, symName: __ZNKSt3__16vectorINS_4pairIiiEENS_9allocatorIS2_EEE19__annotate_increaseB8ue170006Em, symObjAddr: 0x85ED4, symBinAddr: 0x100088274, symSize: 0x44C }
  - { offsetInCU: 0x2BB82, offset: 0x2BB82, size: 0x8, addend: 0x0, symName: __ZNKSt3__16vectorINS_4pairIiiEENS_9allocatorIS2_EEE4sizeB8ue170006Ev, symObjAddr: 0x86320, symBinAddr: 0x1000886C0, symSize: 0xF8 }
  - { offsetInCU: 0x2BBC6, offset: 0x2BBC6, size: 0x8, addend: 0x0, symName: __ZNSt3__14pairIPKNS0_IiiEES3_EC1B8ue170006IS3_S3_LPv0EEEOT_OT0_, symObjAddr: 0x87184, symBinAddr: 0x100089524, symSize: 0x88 }
  - { offsetInCU: 0x2BC24, offset: 0x2BC24, size: 0x8, addend: 0x0, symName: __ZNSt3__14pairIPKNS0_IiiEES3_EC2B8ue170006IS3_S3_LPv0EEEOT_OT0_, symObjAddr: 0x8720C, symBinAddr: 0x1000895AC, symSize: 0x210 }
  - { offsetInCU: 0x2BC82, offset: 0x2BC82, size: 0x8, addend: 0x0, symName: __ZNSt3__118__unwrap_iter_implIPKNS_4pairIiiEELb1EE8__unwrapB8ue170006ES4_, symObjAddr: 0x8741C, symBinAddr: 0x1000897BC, symSize: 0x24 }
  - { offsetInCU: 0x2BCA5, offset: 0x2BCA5, size: 0x8, addend: 0x0, symName: __ZNSt3__129_AllocatorDestroyRangeReverseINS_9allocatorINS_4pairIiiEEEEPS3_EC1B8ue170006ERS4_RS5_S8_, symObjAddr: 0x87690, symBinAddr: 0x100089A30, symSize: 0x90 }
  - { offsetInCU: 0x2BCFC, offset: 0x2BCFC, size: 0x8, addend: 0x0, symName: __ZNSt3__116allocator_traitsINS_9allocatorINS_4pairIiiEEEEE9constructB8ue170006IS3_JRKS3_EvEEvRS4_PT_DpOT0_, symObjAddr: 0x87720, symBinAddr: 0x100089AC0, symSize: 0x8C }
  - { offsetInCU: 0x2BD53, offset: 0x2BD53, size: 0x8, addend: 0x0, symName: __ZNSt3__128__exception_guard_exceptionsINS_29_AllocatorDestroyRangeReverseINS_9allocatorINS_4pairIiiEEEEPS4_EEE10__completeB8ue170006Ev, symObjAddr: 0x877AC, symBinAddr: 0x100089B4C, symSize: 0xD8 }
  - { offsetInCU: 0x2BD79, offset: 0x2BD79, size: 0x8, addend: 0x0, symName: __ZNSt3__128__exception_guard_exceptionsINS_29_AllocatorDestroyRangeReverseINS_9allocatorINS_4pairIiiEEEEPS4_EEED1B8ue170006Ev, symObjAddr: 0x87884, symBinAddr: 0x100089C24, symSize: 0x78 }
  - { offsetInCU: 0x2BDA3, offset: 0x2BDA3, size: 0x8, addend: 0x0, symName: __ZNSt3__128__exception_guard_exceptionsINS_29_AllocatorDestroyRangeReverseINS_9allocatorINS_4pairIiiEEEEPS4_EEEC1B8ue170006ES7_, symObjAddr: 0x878FC, symBinAddr: 0x100089C9C, symSize: 0x84 }
  - { offsetInCU: 0x2BDDC, offset: 0x2BDDC, size: 0x8, addend: 0x0, symName: __ZNSt3__128__exception_guard_exceptionsINS_29_AllocatorDestroyRangeReverseINS_9allocatorINS_4pairIiiEEEEPS4_EEEC2B8ue170006ES7_, symObjAddr: 0x87980, symBinAddr: 0x100089D20, symSize: 0xF8 }
  - { offsetInCU: 0x2BE15, offset: 0x2BE15, size: 0x8, addend: 0x0, symName: __ZNSt3__129_AllocatorDestroyRangeReverseINS_9allocatorINS_4pairIiiEEEEPS3_EC2B8ue170006ERS4_RS5_S8_, symObjAddr: 0x87A78, symBinAddr: 0x100089E18, symSize: 0x20C }
  - { offsetInCU: 0x2BE6C, offset: 0x2BE6C, size: 0x8, addend: 0x0, symName: __ZNSt3__19allocatorINS_4pairIiiEEE9constructB8ue170006IS2_JRKS2_EEEvPT_DpOT0_, symObjAddr: 0x87C84, symBinAddr: 0x10008A024, symSize: 0xA8 }
  - { offsetInCU: 0x2BEC2, offset: 0x2BEC2, size: 0x8, addend: 0x0, symName: __ZNSt3__128__exception_guard_exceptionsINS_29_AllocatorDestroyRangeReverseINS_9allocatorINS_4pairIiiEEEEPS4_EEED2B8ue170006Ev, symObjAddr: 0x87D2C, symBinAddr: 0x10008A0CC, symSize: 0x17C }
  - { offsetInCU: 0x2BEEC, offset: 0x2BEEC, size: 0x8, addend: 0x0, symName: __ZNKSt3__129_AllocatorDestroyRangeReverseINS_9allocatorINS_4pairIiiEEEEPS3_EclB8ue170006Ev, symObjAddr: 0x87EA8, symBinAddr: 0x10008A248, symSize: 0x40C }
  - { offsetInCU: 0x2BF13, offset: 0x2BF13, size: 0x8, addend: 0x0, symName: __ZNSt3__116reverse_iteratorIPNS_4pairIiiEEEC1B8ue170006ES3_, symObjAddr: 0x88590, symBinAddr: 0x10008A930, symSize: 0x80 }
  - { offsetInCU: 0x2BF4B, offset: 0x2BF4B, size: 0x8, addend: 0x0, symName: __ZNSt3__116allocator_traitsINS_9allocatorINS_4pairIiiEEEEE7destroyB8ue170006IS3_vEEvRS4_PT_, symObjAddr: 0x886AC, symBinAddr: 0x10008AA4C, symSize: 0x2C }
  - { offsetInCU: 0x2BF88, offset: 0x2BF88, size: 0x8, addend: 0x0, symName: __ZNSt3__116reverse_iteratorIPNS_4pairIiiEEEppB8ue170006Ev, symObjAddr: 0x88744, symBinAddr: 0x10008AAE4, symSize: 0x1B0 }
  - { offsetInCU: 0x2BFAE, offset: 0x2BFAE, size: 0x8, addend: 0x0, symName: __ZNKSt3__116reverse_iteratorIPNS_4pairIiiEEE4baseB8ue170006Ev, symObjAddr: 0x888F4, symBinAddr: 0x10008AC94, symSize: 0xB0 }
  - { offsetInCU: 0x2BFD4, offset: 0x2BFD4, size: 0x8, addend: 0x0, symName: __ZNSt3__19allocatorINS_4pairIiiEEE7destroyB8ue170006EPS2_, symObjAddr: 0x889A4, symBinAddr: 0x10008AD44, symSize: 0x4C }
  - { offsetInCU: 0x2C00D, offset: 0x2C00D, size: 0x8, addend: 0x0, symName: __ZNSt3__119__to_address_helperINS_16reverse_iteratorIPNS_4pairIiiEEEEvE6__callB8ue170006ERKS5_, symObjAddr: 0x889F0, symBinAddr: 0x10008AD90, symSize: 0x70 }
  - { offsetInCU: 0x2C030, offset: 0x2C030, size: 0x8, addend: 0x0, symName: __ZNKSt3__116reverse_iteratorIPNS_4pairIiiEEEptB8ue170006Ev, symObjAddr: 0x88A60, symBinAddr: 0x10008AE00, symSize: 0x6C }
  - { offsetInCU: 0x2C056, offset: 0x2C056, size: 0x8, addend: 0x0, symName: __ZNKSt3__116reverse_iteratorIPNS_4pairIiiEEEdeB8ue170006Ev, symObjAddr: 0x88ACC, symBinAddr: 0x10008AE6C, symSize: 0x184 }
  - { offsetInCU: 0x2C08A, offset: 0x2C08A, size: 0x8, addend: 0x0, symName: __ZNSt3__116reverse_iteratorIPNS_4pairIiiEEEC2B8ue170006ES3_, symObjAddr: 0x88C50, symBinAddr: 0x10008AFF0, symSize: 0x10C }
  - { offsetInCU: 0x2C0C2, offset: 0x2C0C2, size: 0x8, addend: 0x0, symName: __ZNSt3__118__unwrap_iter_implIPNS_4pairIiiEELb1EE8__unwrapB8ue170006ES3_, symObjAddr: 0x88D5C, symBinAddr: 0x10008B0FC, symSize: 0x24 }
  - { offsetInCU: 0x2C0E5, offset: 0x2C0E5, size: 0x8, addend: 0x0, symName: __ZNSt3__118__unwrap_iter_implIPNS_4pairIiiEELb1EE8__rewrapB8ue170006ES3_S3_, symObjAddr: 0x88D80, symBinAddr: 0x10008B120, symSize: 0x13C }
  - { offsetInCU: 0x2C116, offset: 0x2C116, size: 0x8, addend: 0x0, symName: __ZNSt3__16vectorINS_4pairIiiEENS_9allocatorIS2_EEE21_ConstructTransactionD2B8ue170006Ev, symObjAddr: 0x88EBC, symBinAddr: 0x10008B25C, symSize: 0x390 }
  - { offsetInCU: 0x2C140, offset: 0x2C140, size: 0x8, addend: 0x0, symName: __ZNKSt3__16vectorINS_4pairIiiEENS_9allocatorIS2_EEE17__annotate_shrinkB8ue170006Em, symObjAddr: 0x8924C, symBinAddr: 0x10008B5EC, symSize: 0x360 }
  - { offsetInCU: 0x2C175, offset: 0x2C175, size: 0x8, addend: 0x0, symName: __ZNSt3__128__exception_guard_exceptionsINS_6vectorINS_4pairIiiEENS_9allocatorIS3_EEE16__destroy_vectorEED2B8ue170006Ev, symObjAddr: 0x895AC, symBinAddr: 0x10008B94C, symSize: 0x17C }
  - { offsetInCU: 0x2C19F, offset: 0x2C19F, size: 0x8, addend: 0x0, symName: __ZNSt3__16vectorINS_4pairIiiEENS_9allocatorIS2_EEE16__destroy_vectorclB8ue170006Ev, symObjAddr: 0x89728, symBinAddr: 0x10008BAC8, symSize: 0x43C }
  - { offsetInCU: 0x2C1C5, offset: 0x2C1C5, size: 0x8, addend: 0x0, symName: __ZNSt3__16vectorINS_4pairIiiEENS_9allocatorIS2_EEE7__clearB8ue170006Ev, symObjAddr: 0x89B64, symBinAddr: 0x10008BF04, symSize: 0xB0 }
  - { offsetInCU: 0x2C1EB, offset: 0x2C1EB, size: 0x8, addend: 0x0, symName: __ZNKSt3__16vectorINS_4pairIiiEENS_9allocatorIS2_EEE17__annotate_deleteB8ue170006Ev, symObjAddr: 0x89C14, symBinAddr: 0x10008BFB4, symSize: 0x370 }
  - { offsetInCU: 0x2C211, offset: 0x2C211, size: 0x8, addend: 0x0, symName: __ZNSt3__116allocator_traitsINS_9allocatorINS_4pairIiiEEEEE10deallocateB8ue170006ERS4_PS3_m, symObjAddr: 0x89F84, symBinAddr: 0x10008C324, symSize: 0x34 }
  - { offsetInCU: 0x2C253, offset: 0x2C253, size: 0x8, addend: 0x0, symName: __ZNSt3__16vectorINS_4pairIiiEENS_9allocatorIS2_EEE22__base_destruct_at_endB8ue170006EPS2_, symObjAddr: 0x89FB8, symBinAddr: 0x10008C358, symSize: 0x1FC }
  - { offsetInCU: 0x2C297, offset: 0x2C297, size: 0x8, addend: 0x0, symName: __ZNSt3__19allocatorINS_4pairIiiEEE10deallocateB8ue170006EPS2_m, symObjAddr: 0x8A1B4, symBinAddr: 0x10008C554, symSize: 0x78 }
  - { offsetInCU: 0x2C2D9, offset: 0x2C2D9, size: 0x8, addend: 0x0, symName: __ZNSt3__16vectorINS_4pairIiiEENS_9allocatorIS2_EEED2B8ue170006Ev, symObjAddr: 0x8A22C, symBinAddr: 0x10008C5CC, symSize: 0x294 }
  - { offsetInCU: 0x2C304, offset: 0x2C304, size: 0x8, addend: 0x0, symName: __ZNSt3__16vectorINS_4pairIiiEENS_9allocatorIS2_EEE11__make_iterB8ue170006EPS2_, symObjAddr: 0x8A4C0, symBinAddr: 0x10008C860, symSize: 0x244 }
  - { offsetInCU: 0x2C33B, offset: 0x2C33B, size: 0x8, addend: 0x0, symName: __ZNSt3__111__wrap_iterIPNS_4pairIiiEEEC1B8ue170006ES3_, symObjAddr: 0x8A704, symBinAddr: 0x10008CAA4, symSize: 0x80 }
  - { offsetInCU: 0x2C373, offset: 0x2C373, size: 0x8, addend: 0x0, symName: __ZNSt3__111__wrap_iterIPNS_4pairIiiEEEC2B8ue170006ES3_, symObjAddr: 0x8A784, symBinAddr: 0x10008CB24, symSize: 0xC8 }
  - { offsetInCU: 0x2C3AB, offset: 0x2C3AB, size: 0x8, addend: 0x0, symName: __ZNKSt3__16vectorIbNS_9allocatorIbEEE10__make_refB8ue170006Em, symObjAddr: 0x8A84C, symBinAddr: 0x10008CBEC, symSize: 0x414 }
  - { offsetInCU: 0x2C3E2, offset: 0x2C3E2, size: 0x8, addend: 0x0, symName: __ZNSt3__15dequeI8PositionNS_9allocatorIS1_EEE20__add_front_capacityEv, symObjAddr: 0x8AC60, symBinAddr: 0x10008D000, symSize: 0x14CC }
  - { offsetInCU: 0x2C4A2, offset: 0x2C4A2, size: 0x8, addend: 0x0, symName: __ZNKSt3__15dequeI8PositionNS_9allocatorIS1_EEE25__annotate_increase_frontB8ue170006Em, symObjAddr: 0x8C12C, symBinAddr: 0x10008E4CC, symSize: 0x108 }
  - { offsetInCU: 0x2C4D7, offset: 0x2C4D7, size: 0x8, addend: 0x0, symName: __ZNSt3__116__deque_iteratorI8PositionPS1_RS1_PS2_lLl341EEmmB8ue170006Ev, symObjAddr: 0x8C234, symBinAddr: 0x10008E5D4, symSize: 0x534 }
  - { offsetInCU: 0x2C4FD, offset: 0x2C4FD, size: 0x8, addend: 0x0, symName: __ZNSt3__114__split_bufferIP8PositionNS_9allocatorIS2_EEE4backB8ue170006Ev, symObjAddr: 0x8C768, symBinAddr: 0x10008EB08, symSize: 0x18C }
  - { offsetInCU: 0x2C523, offset: 0x2C523, size: 0x8, addend: 0x0, symName: __ZNSt3__114__split_bufferIP8PositionNS_9allocatorIS2_EEE8pop_backB8ue170006Ev, symObjAddr: 0x8C8F4, symBinAddr: 0x10008EC94, symSize: 0x150 }
  - { offsetInCU: 0x2C549, offset: 0x2C549, size: 0x8, addend: 0x0, symName: __ZNSt3__114__split_bufferIP8PositionNS_9allocatorIS2_EEE10push_frontERKS2_, symObjAddr: 0x8CA44, symBinAddr: 0x10008EDE4, symSize: 0x1214 }
  - { offsetInCU: 0x2C5C8, offset: 0x2C5C8, size: 0x8, addend: 0x0, symName: __ZNKSt3__114__split_bufferIP8PositionNS_9allocatorIS2_EEE13__front_spareB8ue170006Ev, symObjAddr: 0x8DC58, symBinAddr: 0x10008FFF8, symSize: 0xF8 }
  - { offsetInCU: 0x2C5EE, offset: 0x2C5EE, size: 0x8, addend: 0x0, symName: __ZNSt3__114__split_bufferIP8PositionRNS_9allocatorIS2_EEE9push_backB8ue170006ERKS2_, symObjAddr: 0x8DD50, symBinAddr: 0x1000900F0, symSize: 0x1138 }
  - { offsetInCU: 0x2C66D, offset: 0x2C66D, size: 0x8, addend: 0x0, symName: __ZNSt3__16vectorI8PositionNS_9allocatorIS1_EEE22__construct_one_at_endB8ue170006IJRKS1_EEEvDpOT_, symObjAddr: 0x8EE88, symBinAddr: 0x100091228, symSize: 0x550 }
  - { offsetInCU: 0x2C6C2, offset: 0x2C6C2, size: 0x8, addend: 0x0, symName: __ZNSt3__16vectorI8PositionNS_9allocatorIS1_EEE21__push_back_slow_pathIRKS1_EEvOT_, symObjAddr: 0x8F3D8, symBinAddr: 0x100091778, symSize: 0x5B0 }
  - { offsetInCU: 0x2C727, offset: 0x2C727, size: 0x8, addend: 0x0, symName: __ZNKSt3__16vectorI8PositionNS_9allocatorIS1_EEE11__recommendB8ue170006Em, symObjAddr: 0x8F988, symBinAddr: 0x100091D28, symSize: 0x45C }
  - { offsetInCU: 0x2C783, offset: 0x2C783, size: 0x8, addend: 0x0, symName: __ZNSt3__114__split_bufferI8PositionRNS_9allocatorIS1_EEEC1EmmS4_, symObjAddr: 0x8FDE4, symBinAddr: 0x100092184, symSize: 0x90 }
  - { offsetInCU: 0x2C7D9, offset: 0x2C7D9, size: 0x8, addend: 0x0, symName: __ZNSt3__114__split_bufferI8PositionRNS_9allocatorIS1_EEED1Ev, symObjAddr: 0x906D0, symBinAddr: 0x100092A70, symSize: 0x78 }
  - { offsetInCU: 0x2C805, offset: 0x2C805, size: 0x8, addend: 0x0, symName: __ZNSt3__114__split_bufferI8PositionRNS_9allocatorIS1_EEEC2EmmS4_, symObjAddr: 0x90748, symBinAddr: 0x100092AE8, symSize: 0x7E8 }
  - { offsetInCU: 0x2C880, offset: 0x2C880, size: 0x8, addend: 0x0, symName: __ZNSt3__117__compressed_pairIP8PositionRNS_9allocatorIS1_EEEC1B8ue170006IDnS5_EEOT_OT0_, symObjAddr: 0x90F30, symBinAddr: 0x1000932D0, symSize: 0x88 }
  - { offsetInCU: 0x2C8D8, offset: 0x2C8D8, size: 0x8, addend: 0x0, symName: __ZNSt3__114__split_bufferI8PositionRNS_9allocatorIS1_EEE7__allocB8ue170006Ev, symObjAddr: 0x90FB8, symBinAddr: 0x100093358, symSize: 0xE4 }
  - { offsetInCU: 0x2C8FE, offset: 0x2C8FE, size: 0x8, addend: 0x0, symName: __ZNSt3__114__split_bufferI8PositionRNS_9allocatorIS1_EEE9__end_capB8ue170006Ev, symObjAddr: 0x9109C, symBinAddr: 0x10009343C, symSize: 0x100 }
  - { offsetInCU: 0x2C924, offset: 0x2C924, size: 0x8, addend: 0x0, symName: __ZNSt3__117__compressed_pairIP8PositionRNS_9allocatorIS1_EEEC2B8ue170006IDnS5_EEOT_OT0_, symObjAddr: 0x9119C, symBinAddr: 0x10009353C, symSize: 0x198 }
  - { offsetInCU: 0x2C97C, offset: 0x2C97C, size: 0x8, addend: 0x0, symName: __ZNSt3__122__compressed_pair_elemIRNS_9allocatorI8PositionEELi1ELb0EEC2B8ue170006IS4_vEEOT_, symObjAddr: 0x91334, symBinAddr: 0x1000936D4, symSize: 0xEC }
  - { offsetInCU: 0x2C9BE, offset: 0x2C9BE, size: 0x8, addend: 0x0, symName: __ZNSt3__117__compressed_pairIP8PositionRNS_9allocatorIS1_EEE6secondB8ue170006Ev, symObjAddr: 0x91420, symBinAddr: 0x1000937C0, symSize: 0x110 }
  - { offsetInCU: 0x2C9E4, offset: 0x2C9E4, size: 0x8, addend: 0x0, symName: __ZNSt3__122__compressed_pair_elemIRNS_9allocatorI8PositionEELi1ELb0EE5__getB8ue170006Ev, symObjAddr: 0x91530, symBinAddr: 0x1000938D0, symSize: 0xD8 }
  - { offsetInCU: 0x2CA0A, offset: 0x2CA0A, size: 0x8, addend: 0x0, symName: __ZNSt3__117__compressed_pairIP8PositionRNS_9allocatorIS1_EEE5firstB8ue170006Ev, symObjAddr: 0x91608, symBinAddr: 0x1000939A8, symSize: 0x124 }
  - { offsetInCU: 0x2CA30, offset: 0x2CA30, size: 0x8, addend: 0x0, symName: __ZNSt3__116reverse_iteratorIP8PositionEC1B8ue170006ES2_, symObjAddr: 0x91BD4, symBinAddr: 0x100093F74, symSize: 0x80 }
  - { offsetInCU: 0x2CA68, offset: 0x2CA68, size: 0x8, addend: 0x0, symName: __ZNKSt3__116reverse_iteratorIP8PositionE4baseB8ue170006Ev, symObjAddr: 0x91C54, symBinAddr: 0x100093FF4, symSize: 0xB0 }
  - { offsetInCU: 0x2CAB1, offset: 0x2CAB1, size: 0x8, addend: 0x0, symName: __ZNKSt3__111__move_loopINS_17_ClassicAlgPolicyEEclB8ue170006INS_16reverse_iteratorIP8PositionEES7_S7_EENS_4pairIT_T1_EES9_T0_SA_, symObjAddr: 0x93884, symBinAddr: 0x100095C24, symSize: 0x370 }
  - { offsetInCU: 0x2CB2E, offset: 0x2CB2E, size: 0x8, addend: 0x0, symName: __ZNSt3__18_IterOpsINS_17_ClassicAlgPolicyEE11__iter_moveB8ue170006IRNS_16reverse_iteratorIP8PositionEEEENS_9enable_ifIXsr12is_referenceIDTdeclsr3stdE7declvalIRT_EEEEE5valueEDTclsr3stdE4movedeclsr3stdE7declvalISB_EEEEE4typeEOSA_, symObjAddr: 0x94840, symBinAddr: 0x100096BE0, symSize: 0xB8 }
  - { offsetInCU: 0x2CB5A, offset: 0x2CB5A, size: 0x8, addend: 0x0, symName: __ZNKSt3__116reverse_iteratorIP8PositionEdeB8ue170006Ev, symObjAddr: 0x948F8, symBinAddr: 0x100096C98, symSize: 0x184 }
  - { offsetInCU: 0x2CB8E, offset: 0x2CB8E, size: 0x8, addend: 0x0, symName: __ZNSt3__116reverse_iteratorIP8PositionEppB8ue170006Ev, symObjAddr: 0x94A7C, symBinAddr: 0x100096E1C, symSize: 0x1B0 }
  - { offsetInCU: 0x2CBB4, offset: 0x2CBB4, size: 0x8, addend: 0x0, symName: __ZNSt3__18_IterOpsINS_17_ClassicAlgPolicyEE25__validate_iter_referenceB8ue170006IRNS_16reverse_iteratorIP8PositionEEEEvv, symObjAddr: 0x94C2C, symBinAddr: 0x100096FCC, symSize: 0x4 }
  - { offsetInCU: 0x2CBD2, offset: 0x2CBD2, size: 0x8, addend: 0x0, symName: __ZNSt3__118__unwrap_iter_implINS_16reverse_iteratorIP8PositionEELb0EE8__unwrapB8ue170006ES4_, symObjAddr: 0x94C30, symBinAddr: 0x100096FD0, symSize: 0x274 }
  - { offsetInCU: 0x2CBFE, offset: 0x2CBFE, size: 0x8, addend: 0x0, symName: __ZNSt3__14pairINS_16reverse_iteratorIP8PositionEES4_EC1B8ue170006IS4_S4_LPv0EEEOT_OT0_, symObjAddr: 0x94EA4, symBinAddr: 0x100097244, symSize: 0x88 }
  - { offsetInCU: 0x2CC5C, offset: 0x2CC5C, size: 0x8, addend: 0x0, symName: __ZNSt3__14pairINS_16reverse_iteratorIP8PositionEES4_EC2B8ue170006IS4_S4_LPv0EEEOT_OT0_, symObjAddr: 0x94F2C, symBinAddr: 0x1000972CC, symSize: 0xA0 }
  - { offsetInCU: 0x2CCBA, offset: 0x2CCBA, size: 0x8, addend: 0x0, symName: __ZNSt3__118__unwrap_iter_implINS_16reverse_iteratorIP8PositionEELb0EE8__rewrapB8ue170006ES4_S4_, symObjAddr: 0x94FCC, symBinAddr: 0x10009736C, symSize: 0x2E0 }
  - { offsetInCU: 0x2CCEF, offset: 0x2CCEF, size: 0x8, addend: 0x0, symName: __ZNSt3__116reverse_iteratorIP8PositionEC2B8ue170006ES2_, symObjAddr: 0x952AC, symBinAddr: 0x10009764C, symSize: 0x10C }
  - { offsetInCU: 0x2CD27, offset: 0x2CD27, size: 0x8, addend: 0x0, symName: __ZNSt3__114__split_bufferI8PositionRNS_9allocatorIS1_EEED2Ev, symObjAddr: 0x953B8, symBinAddr: 0x100097758, symSize: 0x16C }
  - { offsetInCU: 0x2CD53, offset: 0x2CD53, size: 0x8, addend: 0x0, symName: __ZNSt3__114__split_bufferI8PositionRNS_9allocatorIS1_EEE5clearB8ue170006Ev, symObjAddr: 0x95524, symBinAddr: 0x1000978C4, symSize: 0xB4 }
  - { offsetInCU: 0x2CD79, offset: 0x2CD79, size: 0x8, addend: 0x0, symName: __ZNKSt3__114__split_bufferI8PositionRNS_9allocatorIS1_EEE8capacityB8ue170006Ev, symObjAddr: 0x955D8, symBinAddr: 0x100097978, symSize: 0x144 }
  - { offsetInCU: 0x2CD9F, offset: 0x2CD9F, size: 0x8, addend: 0x0, symName: __ZNSt3__114__split_bufferI8PositionRNS_9allocatorIS1_EEE17__destruct_at_endB8ue170006EPS1_, symObjAddr: 0x9571C, symBinAddr: 0x100097ABC, symSize: 0x74 }
  - { offsetInCU: 0x2CDD3, offset: 0x2CDD3, size: 0x8, addend: 0x0, symName: __ZNSt3__114__split_bufferI8PositionRNS_9allocatorIS1_EEE17__destruct_at_endB8ue170006EPS1_NS_17integral_constantIbLb0EEE, symObjAddr: 0x95790, symBinAddr: 0x100097B30, symSize: 0x224 }
  - { offsetInCU: 0x2CE13, offset: 0x2CE13, size: 0x8, addend: 0x0, symName: __ZNKSt3__114__split_bufferI8PositionRNS_9allocatorIS1_EEE9__end_capB8ue170006Ev, symObjAddr: 0x959B4, symBinAddr: 0x100097D54, symSize: 0x100 }
  - { offsetInCU: 0x2CE39, offset: 0x2CE39, size: 0x8, addend: 0x0, symName: __ZNKSt3__117__compressed_pairIP8PositionRNS_9allocatorIS1_EEE5firstB8ue170006Ev, symObjAddr: 0x95AB4, symBinAddr: 0x100097E54, symSize: 0x124 }
  - { offsetInCU: 0x2CE5F, offset: 0x2CE5F, size: 0x8, addend: 0x0, symName: __ZNSt3__16vectorI8PositionNS_9allocatorIS1_EEE11__make_iterB8ue170006EPS1_, symObjAddr: 0x95BD8, symBinAddr: 0x100097F78, symSize: 0x244 }
  - { offsetInCU: 0x2CE96, offset: 0x2CE96, size: 0x8, addend: 0x0, symName: __ZNSt3__111__wrap_iterIP8PositionEC1B8ue170006ES2_, symObjAddr: 0x95E1C, symBinAddr: 0x1000981BC, symSize: 0x80 }
  - { offsetInCU: 0x2CECE, offset: 0x2CECE, size: 0x8, addend: 0x0, symName: __ZNSt3__111__wrap_iterIP8PositionEC2B8ue170006ES2_, symObjAddr: 0x95E9C, symBinAddr: 0x10009823C, symSize: 0xC8 }
  - { offsetInCU: 0x2CF06, offset: 0x2CF06, size: 0x8, addend: 0x0, symName: __ZNSt3__111__wrap_iterIP8PositionEmmB8ue170006Ev, symObjAddr: 0x96704, symBinAddr: 0x100098AA4, symSize: 0x1A8 }
  - { offsetInCU: 0x2CF2C, offset: 0x2CF2C, size: 0x8, addend: 0x0, symName: __ZNSt3__18_IterOpsINS_17_ClassicAlgPolicyEE9iter_swapB8ue170006IRNS_11__wrap_iterIP8PositionEES8_EEvOT_OT0_, symObjAddr: 0x968AC, symBinAddr: 0x100098C4C, symSize: 0x290 }
  - { offsetInCU: 0x2CF71, offset: 0x2CF71, size: 0x8, addend: 0x0, symName: __ZNSt3__111__wrap_iterIP8PositionEppB8ue170006Ev, symObjAddr: 0x96B3C, symBinAddr: 0x100098EDC, symSize: 0x1A8 }
  - { offsetInCU: 0x2CF97, offset: 0x2CF97, size: 0x8, addend: 0x0, symName: __ZNKSt3__111__wrap_iterIP8PositionE4baseB8ue170006Ev, symObjAddr: 0x96D80, symBinAddr: 0x100099120, symSize: 0xAC }
  - { offsetInCU: 0x2CFBD, offset: 0x2CFBD, size: 0x8, addend: 0x0, symName: __ZNKSt3__111__wrap_iterIP8PositionEdeB8ue170006Ev, symObjAddr: 0x97334, symBinAddr: 0x1000996D4, symSize: 0xF4 }
...
